ARM GAS  /tmp/cckXdCGu.s 			page 1


   1              		.cpu cortex-m4
   2              		.arch armv7e-m
   3              		.fpu fpv4-sp-d16
   4              		.eabi_attribute 27, 1
   5              		.eabi_attribute 28, 1
   6              		.eabi_attribute 20, 1
   7              		.eabi_attribute 21, 1
   8              		.eabi_attribute 23, 3
   9              		.eabi_attribute 24, 1
  10              		.eabi_attribute 25, 1
  11              		.eabi_attribute 26, 1
  12              		.eabi_attribute 30, 1
  13              		.eabi_attribute 34, 1
  14              		.eabi_attribute 18, 4
  15              		.file	"stm32f4xx_it.c"
  16              		.text
  17              	.Ltext0:
  18              		.cfi_sections	.debug_frame
  19              		.file 1 "Core/Src/stm32f4xx_it.c"
  20              		.section	.text.NMI_Handler,"ax",%progbits
  21              		.align	1
  22              		.global	NMI_Handler
  23              		.syntax unified
  24              		.thumb
  25              		.thumb_func
  27              	NMI_Handler:
  28              	.LFB137:
   1:Core/Src/stm32f4xx_it.c **** /* USER CODE BEGIN Header */
   2:Core/Src/stm32f4xx_it.c **** /**
   3:Core/Src/stm32f4xx_it.c ****   ******************************************************************************
   4:Core/Src/stm32f4xx_it.c ****   * @file    stm32f4xx_it.c
   5:Core/Src/stm32f4xx_it.c ****   * @brief   Interrupt Service Routines.
   6:Core/Src/stm32f4xx_it.c ****   ******************************************************************************
   7:Core/Src/stm32f4xx_it.c ****   * @attention
   8:Core/Src/stm32f4xx_it.c ****   *
   9:Core/Src/stm32f4xx_it.c ****   * Copyright (c) 2025 STMicroelectronics.
  10:Core/Src/stm32f4xx_it.c ****   * All rights reserved.
  11:Core/Src/stm32f4xx_it.c ****   *
  12:Core/Src/stm32f4xx_it.c ****   * This software is licensed under terms that can be found in the LICENSE file
  13:Core/Src/stm32f4xx_it.c ****   * in the root directory of this software component.
  14:Core/Src/stm32f4xx_it.c ****   * If no LICENSE file comes with this software, it is provided AS-IS.
  15:Core/Src/stm32f4xx_it.c ****   *
  16:Core/Src/stm32f4xx_it.c ****   ******************************************************************************
  17:Core/Src/stm32f4xx_it.c ****   */
  18:Core/Src/stm32f4xx_it.c **** /* USER CODE END Header */
  19:Core/Src/stm32f4xx_it.c **** 
  20:Core/Src/stm32f4xx_it.c **** /* Includes ------------------------------------------------------------------*/
  21:Core/Src/stm32f4xx_it.c **** #include "main.h"
  22:Core/Src/stm32f4xx_it.c **** #include "stm32f4xx_it.h"
  23:Core/Src/stm32f4xx_it.c **** /* Private includes ----------------------------------------------------------*/
  24:Core/Src/stm32f4xx_it.c **** /* USER CODE BEGIN Includes */
  25:Core/Src/stm32f4xx_it.c **** /* USER CODE END Includes */
  26:Core/Src/stm32f4xx_it.c **** #include <stdbool.h>
  27:Core/Src/stm32f4xx_it.c **** #include <stdio.h>
  28:Core/Src/stm32f4xx_it.c **** #include "transmit_and_recieve_control/transmit_and_recieve_control.h"
  29:Core/Src/stm32f4xx_it.c **** /* Private typedef -----------------------------------------------------------*/
  30:Core/Src/stm32f4xx_it.c **** /* USER CODE BEGIN TD */
ARM GAS  /tmp/cckXdCGu.s 			page 2


  31:Core/Src/stm32f4xx_it.c **** 
  32:Core/Src/stm32f4xx_it.c **** /* USER CODE END TD */
  33:Core/Src/stm32f4xx_it.c **** 
  34:Core/Src/stm32f4xx_it.c **** /* Private define ------------------------------------------------------------*/
  35:Core/Src/stm32f4xx_it.c **** /* USER CODE BEGIN PD */
  36:Core/Src/stm32f4xx_it.c **** #define BAROMETER_TEMPERATURE_PUT 19950
  37:Core/Src/stm32f4xx_it.c **** #define BAROMETER_TEMPERATURE_GET 19969
  38:Core/Src/stm32f4xx_it.c **** 
  39:Core/Src/stm32f4xx_it.c **** #define BAROMETER_PRESSURE_PUT 19970
  40:Core/Src/stm32f4xx_it.c **** #define BAROMETER_PRESSURE_GET 20000
  41:Core/Src/stm32f4xx_it.c **** /* USER CODE END PD */
  42:Core/Src/stm32f4xx_it.c **** 
  43:Core/Src/stm32f4xx_it.c **** /* Private macro -------------------------------------------------------------*/
  44:Core/Src/stm32f4xx_it.c **** /* USER CODE BEGIN PM */
  45:Core/Src/stm32f4xx_it.c **** 
  46:Core/Src/stm32f4xx_it.c **** /* USER CODE END PM */
  47:Core/Src/stm32f4xx_it.c **** 
  48:Core/Src/stm32f4xx_it.c **** /* Private variables ---------------------------------------------------------*/
  49:Core/Src/stm32f4xx_it.c **** /* USER CODE BEGIN PV */
  50:Core/Src/stm32f4xx_it.c **** static unsigned int SysTick_20Sec_Counter = 0;
  51:Core/Src/stm32f4xx_it.c **** //static unsigned int SysTick_1Minute_Counter = 0;
  52:Core/Src/stm32f4xx_it.c **** //static Data Log[LOG_SIZE] = {0};
  53:Core/Src/stm32f4xx_it.c **** //static unsigned char LogCounter = 0;
  54:Core/Src/stm32f4xx_it.c **** extern UART_HandleTypeDef huart2;
  55:Core/Src/stm32f4xx_it.c **** extern char msg_time[32];
  56:Core/Src/stm32f4xx_it.c **** extern Data journal[5];
  57:Core/Src/stm32f4xx_it.c **** extern int count;
  58:Core/Src/stm32f4xx_it.c **** extern int32_t temperature;
  59:Core/Src/stm32f4xx_it.c **** extern int32_t pressure;
  60:Core/Src/stm32f4xx_it.c **** extern I2C_HandleTypeDef hi2c1;
  61:Core/Src/stm32f4xx_it.c **** char message_count[32] = {0};
  62:Core/Src/stm32f4xx_it.c **** bool current_state_is_write = false;
  63:Core/Src/stm32f4xx_it.c **** extern uint8_t cmd;
  64:Core/Src/stm32f4xx_it.c **** extern uint16_t lcd1604_addr;
  65:Core/Src/stm32f4xx_it.c **** extern uint16_t bmp180_addr;
  66:Core/Src/stm32f4xx_it.c **** extern char GLOBAL_MESSAGE_BUFFER[30];
  67:Core/Src/stm32f4xx_it.c **** int32_t temperature_result = 0;
  68:Core/Src/stm32f4xx_it.c **** int32_t pressure_result = 0;
  69:Core/Src/stm32f4xx_it.c **** //unsigned int counter_1s = 0;
  70:Core/Src/stm32f4xx_it.c **** /* USER CODE END PV */
  71:Core/Src/stm32f4xx_it.c **** 
  72:Core/Src/stm32f4xx_it.c **** /* Private function prototypes -----------------------------------------------*/
  73:Core/Src/stm32f4xx_it.c **** /* USER CODE BEGIN PFP */
  74:Core/Src/stm32f4xx_it.c **** void GetData(void);
  75:Core/Src/stm32f4xx_it.c **** int AveragingData(void);
  76:Core/Src/stm32f4xx_it.c **** void LogData(Data Current);
  77:Core/Src/stm32f4xx_it.c **** /* USER CODE END PFP */
  78:Core/Src/stm32f4xx_it.c **** 
  79:Core/Src/stm32f4xx_it.c **** /* Private user code ---------------------------------------------------------*/
  80:Core/Src/stm32f4xx_it.c **** /* USER CODE BEGIN 0 */
  81:Core/Src/stm32f4xx_it.c **** 
  82:Core/Src/stm32f4xx_it.c **** /* USER CODE END 0 */
  83:Core/Src/stm32f4xx_it.c **** 
  84:Core/Src/stm32f4xx_it.c **** /* External variables --------------------------------------------------------*/
  85:Core/Src/stm32f4xx_it.c **** 
  86:Core/Src/stm32f4xx_it.c **** /* USER CODE BEGIN EV */
  87:Core/Src/stm32f4xx_it.c **** 
ARM GAS  /tmp/cckXdCGu.s 			page 3


  88:Core/Src/stm32f4xx_it.c **** /* USER CODE END EV */
  89:Core/Src/stm32f4xx_it.c **** 
  90:Core/Src/stm32f4xx_it.c **** /******************************************************************************/
  91:Core/Src/stm32f4xx_it.c **** /*           Cortex-M4 Processor Interruption and Exception Handlers          */
  92:Core/Src/stm32f4xx_it.c **** /******************************************************************************/
  93:Core/Src/stm32f4xx_it.c **** /**
  94:Core/Src/stm32f4xx_it.c ****   * @brief This function handles Non maskable interrupt.
  95:Core/Src/stm32f4xx_it.c ****   */
  96:Core/Src/stm32f4xx_it.c **** void NMI_Handler(void)
  97:Core/Src/stm32f4xx_it.c **** {
  29              		.loc 1 97 1 view -0
  30              		.cfi_startproc
  31              		@ Volatile: function does not return.
  32              		@ args = 0, pretend = 0, frame = 0
  33              		@ frame_needed = 0, uses_anonymous_args = 0
  34              		@ link register save eliminated.
  35              	.L2:
  98:Core/Src/stm32f4xx_it.c ****   /* USER CODE BEGIN NonMaskableInt_IRQn 0 */
  99:Core/Src/stm32f4xx_it.c **** 
 100:Core/Src/stm32f4xx_it.c ****   /* USER CODE END NonMaskableInt_IRQn 0 */
 101:Core/Src/stm32f4xx_it.c ****   /* USER CODE BEGIN NonMaskableInt_IRQn 1 */
 102:Core/Src/stm32f4xx_it.c ****    while (1)
  36              		.loc 1 102 4 view .LVU1
 103:Core/Src/stm32f4xx_it.c ****   {
 104:Core/Src/stm32f4xx_it.c ****   }
  37              		.loc 1 104 3 view .LVU2
 102:Core/Src/stm32f4xx_it.c ****   {
  38              		.loc 1 102 10 view .LVU3
  39 0000 FEE7     		b	.L2
  40              		.cfi_endproc
  41              	.LFE137:
  43              		.section	.text.HardFault_Handler,"ax",%progbits
  44              		.align	1
  45              		.global	HardFault_Handler
  46              		.syntax unified
  47              		.thumb
  48              		.thumb_func
  50              	HardFault_Handler:
  51              	.LFB138:
 105:Core/Src/stm32f4xx_it.c ****   /* USER CODE END NonMaskableInt_IRQn 1 */
 106:Core/Src/stm32f4xx_it.c **** }
 107:Core/Src/stm32f4xx_it.c **** 
 108:Core/Src/stm32f4xx_it.c **** /**
 109:Core/Src/stm32f4xx_it.c ****   * @brief This function handles Hard fault interrupt.
 110:Core/Src/stm32f4xx_it.c ****   */
 111:Core/Src/stm32f4xx_it.c **** void HardFault_Handler(void)
 112:Core/Src/stm32f4xx_it.c **** {
  52              		.loc 1 112 1 view -0
  53              		.cfi_startproc
  54              		@ Volatile: function does not return.
  55              		@ args = 0, pretend = 0, frame = 0
  56              		@ frame_needed = 0, uses_anonymous_args = 0
  57              		@ link register save eliminated.
  58              	.L4:
 113:Core/Src/stm32f4xx_it.c ****   /* USER CODE BEGIN HardFault_IRQn 0 */
 114:Core/Src/stm32f4xx_it.c **** 
 115:Core/Src/stm32f4xx_it.c ****   /* USER CODE END HardFault_IRQn 0 */
ARM GAS  /tmp/cckXdCGu.s 			page 4


 116:Core/Src/stm32f4xx_it.c ****   while (1)
  59              		.loc 1 116 3 view .LVU5
 117:Core/Src/stm32f4xx_it.c ****   {
 118:Core/Src/stm32f4xx_it.c ****     /* USER CODE BEGIN W1_HardFault_IRQn 0 */
 119:Core/Src/stm32f4xx_it.c ****     /* USER CODE END W1_HardFault_IRQn 0 */
 120:Core/Src/stm32f4xx_it.c ****   }
  60              		.loc 1 120 3 view .LVU6
 116:Core/Src/stm32f4xx_it.c ****   {
  61              		.loc 1 116 9 view .LVU7
  62 0000 FEE7     		b	.L4
  63              		.cfi_endproc
  64              	.LFE138:
  66              		.section	.text.MemManage_Handler,"ax",%progbits
  67              		.align	1
  68              		.global	MemManage_Handler
  69              		.syntax unified
  70              		.thumb
  71              		.thumb_func
  73              	MemManage_Handler:
  74              	.LFB139:
 121:Core/Src/stm32f4xx_it.c **** }
 122:Core/Src/stm32f4xx_it.c **** 
 123:Core/Src/stm32f4xx_it.c **** /**
 124:Core/Src/stm32f4xx_it.c ****   * @brief This function handles Memory management fault.
 125:Core/Src/stm32f4xx_it.c ****   */
 126:Core/Src/stm32f4xx_it.c **** void MemManage_Handler(void)
 127:Core/Src/stm32f4xx_it.c **** {
  75              		.loc 1 127 1 view -0
  76              		.cfi_startproc
  77              		@ Volatile: function does not return.
  78              		@ args = 0, pretend = 0, frame = 0
  79              		@ frame_needed = 0, uses_anonymous_args = 0
  80              		@ link register save eliminated.
  81              	.L6:
 128:Core/Src/stm32f4xx_it.c ****   /* USER CODE BEGIN MemoryManagement_IRQn 0 */
 129:Core/Src/stm32f4xx_it.c **** 
 130:Core/Src/stm32f4xx_it.c ****   /* USER CODE END MemoryManagement_IRQn 0 */
 131:Core/Src/stm32f4xx_it.c ****   while (1)
  82              		.loc 1 131 3 view .LVU9
 132:Core/Src/stm32f4xx_it.c ****   {
 133:Core/Src/stm32f4xx_it.c ****     /* USER CODE BEGIN W1_MemoryManagement_IRQn 0 */
 134:Core/Src/stm32f4xx_it.c ****     /* USER CODE END W1_MemoryManagement_IRQn 0 */
 135:Core/Src/stm32f4xx_it.c ****   }
  83              		.loc 1 135 3 view .LVU10
 131:Core/Src/stm32f4xx_it.c ****   {
  84              		.loc 1 131 9 view .LVU11
  85 0000 FEE7     		b	.L6
  86              		.cfi_endproc
  87              	.LFE139:
  89              		.section	.text.BusFault_Handler,"ax",%progbits
  90              		.align	1
  91              		.global	BusFault_Handler
  92              		.syntax unified
  93              		.thumb
  94              		.thumb_func
  96              	BusFault_Handler:
  97              	.LFB140:
ARM GAS  /tmp/cckXdCGu.s 			page 5


 136:Core/Src/stm32f4xx_it.c **** }
 137:Core/Src/stm32f4xx_it.c **** 
 138:Core/Src/stm32f4xx_it.c **** /**
 139:Core/Src/stm32f4xx_it.c ****   * @brief This function handles Pre-fetch fault, memory access fault.
 140:Core/Src/stm32f4xx_it.c ****   */
 141:Core/Src/stm32f4xx_it.c **** void BusFault_Handler(void)
 142:Core/Src/stm32f4xx_it.c **** {
  98              		.loc 1 142 1 view -0
  99              		.cfi_startproc
 100              		@ Volatile: function does not return.
 101              		@ args = 0, pretend = 0, frame = 0
 102              		@ frame_needed = 0, uses_anonymous_args = 0
 103              		@ link register save eliminated.
 104              	.L8:
 143:Core/Src/stm32f4xx_it.c ****   /* USER CODE BEGIN BusFault_IRQn 0 */
 144:Core/Src/stm32f4xx_it.c **** 
 145:Core/Src/stm32f4xx_it.c ****   /* USER CODE END BusFault_IRQn 0 */
 146:Core/Src/stm32f4xx_it.c ****   while (1)
 105              		.loc 1 146 3 view .LVU13
 147:Core/Src/stm32f4xx_it.c ****   {
 148:Core/Src/stm32f4xx_it.c ****     /* USER CODE BEGIN W1_BusFault_IRQn 0 */
 149:Core/Src/stm32f4xx_it.c ****     /* USER CODE END W1_BusFault_IRQn 0 */
 150:Core/Src/stm32f4xx_it.c ****   }
 106              		.loc 1 150 3 view .LVU14
 146:Core/Src/stm32f4xx_it.c ****   {
 107              		.loc 1 146 9 view .LVU15
 108 0000 FEE7     		b	.L8
 109              		.cfi_endproc
 110              	.LFE140:
 112              		.section	.text.UsageFault_Handler,"ax",%progbits
 113              		.align	1
 114              		.global	UsageFault_Handler
 115              		.syntax unified
 116              		.thumb
 117              		.thumb_func
 119              	UsageFault_Handler:
 120              	.LFB141:
 151:Core/Src/stm32f4xx_it.c **** }
 152:Core/Src/stm32f4xx_it.c **** 
 153:Core/Src/stm32f4xx_it.c **** /**
 154:Core/Src/stm32f4xx_it.c ****   * @brief This function handles Undefined instruction or illegal state.
 155:Core/Src/stm32f4xx_it.c ****   */
 156:Core/Src/stm32f4xx_it.c **** void UsageFault_Handler(void)
 157:Core/Src/stm32f4xx_it.c **** {
 121              		.loc 1 157 1 view -0
 122              		.cfi_startproc
 123              		@ Volatile: function does not return.
 124              		@ args = 0, pretend = 0, frame = 0
 125              		@ frame_needed = 0, uses_anonymous_args = 0
 126              		@ link register save eliminated.
 127              	.L10:
 158:Core/Src/stm32f4xx_it.c ****   /* USER CODE BEGIN UsageFault_IRQn 0 */
 159:Core/Src/stm32f4xx_it.c **** 
 160:Core/Src/stm32f4xx_it.c ****   /* USER CODE END UsageFault_IRQn 0 */
 161:Core/Src/stm32f4xx_it.c ****   while (1)
 128              		.loc 1 161 3 view .LVU17
 162:Core/Src/stm32f4xx_it.c ****   {
ARM GAS  /tmp/cckXdCGu.s 			page 6


 163:Core/Src/stm32f4xx_it.c ****     /* USER CODE BEGIN W1_UsageFault_IRQn 0 */
 164:Core/Src/stm32f4xx_it.c ****     /* USER CODE END W1_UsageFault_IRQn 0 */
 165:Core/Src/stm32f4xx_it.c ****   }
 129              		.loc 1 165 3 view .LVU18
 161:Core/Src/stm32f4xx_it.c ****   {
 130              		.loc 1 161 9 view .LVU19
 131 0000 FEE7     		b	.L10
 132              		.cfi_endproc
 133              	.LFE141:
 135              		.section	.text.SVC_Handler,"ax",%progbits
 136              		.align	1
 137              		.global	SVC_Handler
 138              		.syntax unified
 139              		.thumb
 140              		.thumb_func
 142              	SVC_Handler:
 143              	.LFB142:
 166:Core/Src/stm32f4xx_it.c **** }
 167:Core/Src/stm32f4xx_it.c **** 
 168:Core/Src/stm32f4xx_it.c **** /**
 169:Core/Src/stm32f4xx_it.c ****   * @brief This function handles System service call via SWI instruction.
 170:Core/Src/stm32f4xx_it.c ****   */
 171:Core/Src/stm32f4xx_it.c **** void SVC_Handler(void)
 172:Core/Src/stm32f4xx_it.c **** {
 144              		.loc 1 172 1 view -0
 145              		.cfi_startproc
 146              		@ args = 0, pretend = 0, frame = 0
 147              		@ frame_needed = 0, uses_anonymous_args = 0
 148              		@ link register save eliminated.
 173:Core/Src/stm32f4xx_it.c ****   /* USER CODE BEGIN SVCall_IRQn 0 */
 174:Core/Src/stm32f4xx_it.c **** 
 175:Core/Src/stm32f4xx_it.c ****   /* USER CODE END SVCall_IRQn 0 */
 176:Core/Src/stm32f4xx_it.c ****   /* USER CODE BEGIN SVCall_IRQn 1 */
 177:Core/Src/stm32f4xx_it.c **** 
 178:Core/Src/stm32f4xx_it.c ****   /* USER CODE END SVCall_IRQn 1 */
 179:Core/Src/stm32f4xx_it.c **** }
 149              		.loc 1 179 1 view .LVU21
 150 0000 7047     		bx	lr
 151              		.cfi_endproc
 152              	.LFE142:
 154              		.section	.text.DebugMon_Handler,"ax",%progbits
 155              		.align	1
 156              		.global	DebugMon_Handler
 157              		.syntax unified
 158              		.thumb
 159              		.thumb_func
 161              	DebugMon_Handler:
 162              	.LFB143:
 180:Core/Src/stm32f4xx_it.c **** 
 181:Core/Src/stm32f4xx_it.c **** /**
 182:Core/Src/stm32f4xx_it.c ****   * @brief This function handles Debug monitor.
 183:Core/Src/stm32f4xx_it.c ****   */
 184:Core/Src/stm32f4xx_it.c **** void DebugMon_Handler(void)
 185:Core/Src/stm32f4xx_it.c **** {
 163              		.loc 1 185 1 view -0
 164              		.cfi_startproc
 165              		@ args = 0, pretend = 0, frame = 0
ARM GAS  /tmp/cckXdCGu.s 			page 7


 166              		@ frame_needed = 0, uses_anonymous_args = 0
 167              		@ link register save eliminated.
 186:Core/Src/stm32f4xx_it.c ****   /* USER CODE BEGIN DebugMonitor_IRQn 0 */
 187:Core/Src/stm32f4xx_it.c **** 
 188:Core/Src/stm32f4xx_it.c ****   /* USER CODE END DebugMonitor_IRQn 0 */
 189:Core/Src/stm32f4xx_it.c ****   /* USER CODE BEGIN DebugMonitor_IRQn 1 */
 190:Core/Src/stm32f4xx_it.c **** 
 191:Core/Src/stm32f4xx_it.c ****   /* USER CODE END DebugMonitor_IRQn 1 */
 192:Core/Src/stm32f4xx_it.c **** }
 168              		.loc 1 192 1 view .LVU23
 169 0000 7047     		bx	lr
 170              		.cfi_endproc
 171              	.LFE143:
 173              		.section	.text.PendSV_Handler,"ax",%progbits
 174              		.align	1
 175              		.global	PendSV_Handler
 176              		.syntax unified
 177              		.thumb
 178              		.thumb_func
 180              	PendSV_Handler:
 181              	.LFB144:
 193:Core/Src/stm32f4xx_it.c **** 
 194:Core/Src/stm32f4xx_it.c **** /**
 195:Core/Src/stm32f4xx_it.c ****   * @brief This function handles Pendable request for system service.
 196:Core/Src/stm32f4xx_it.c ****   */
 197:Core/Src/stm32f4xx_it.c **** void PendSV_Handler(void)
 198:Core/Src/stm32f4xx_it.c **** {
 182              		.loc 1 198 1 view -0
 183              		.cfi_startproc
 184              		@ args = 0, pretend = 0, frame = 0
 185              		@ frame_needed = 0, uses_anonymous_args = 0
 186              		@ link register save eliminated.
 199:Core/Src/stm32f4xx_it.c ****   /* USER CODE BEGIN PendSV_IRQn 0 */
 200:Core/Src/stm32f4xx_it.c **** 
 201:Core/Src/stm32f4xx_it.c ****   /* USER CODE END PendSV_IRQn 0 */
 202:Core/Src/stm32f4xx_it.c ****   /* USER CODE BEGIN PendSV_IRQn 1 */
 203:Core/Src/stm32f4xx_it.c **** 
 204:Core/Src/stm32f4xx_it.c ****   /* USER CODE END PendSV_IRQn 1 */
 205:Core/Src/stm32f4xx_it.c **** }
 187              		.loc 1 205 1 view .LVU25
 188 0000 7047     		bx	lr
 189              		.cfi_endproc
 190              	.LFE144:
 192              		.section	.rodata.SysTick_Handler.str1.4,"aMS",%progbits,1
 193              		.align	2
 194              	.LC0:
 195 0000 252E326C 		.ascii	"%.2ld\012, %.2ld\012\000"
 195      640A2C20 
 195      252E326C 
 195      640A00
 196              		.section	.text.SysTick_Handler,"ax",%progbits
 197              		.align	1
 198              		.global	SysTick_Handler
 199              		.syntax unified
 200              		.thumb
 201              		.thumb_func
 203              	SysTick_Handler:
ARM GAS  /tmp/cckXdCGu.s 			page 8


 204              	.LFB145:
 206:Core/Src/stm32f4xx_it.c **** 
 207:Core/Src/stm32f4xx_it.c **** /**
 208:Core/Src/stm32f4xx_it.c ****   * @brief This function handles System tick timer.
 209:Core/Src/stm32f4xx_it.c ****   */
 210:Core/Src/stm32f4xx_it.c **** void SysTick_Handler(void)
 211:Core/Src/stm32f4xx_it.c **** {
 205              		.loc 1 211 1 view -0
 206              		.cfi_startproc
 207              		@ args = 0, pretend = 0, frame = 8
 208              		@ frame_needed = 0, uses_anonymous_args = 0
 209 0000 10B5     		push	{r4, lr}
 210              	.LCFI0:
 211              		.cfi_def_cfa_offset 8
 212              		.cfi_offset 4, -8
 213              		.cfi_offset 14, -4
 214 0002 86B0     		sub	sp, sp, #24
 215              	.LCFI1:
 216              		.cfi_def_cfa_offset 32
 212:Core/Src/stm32f4xx_it.c ****   /* USER CODE BEGIN SysTick_IRQn 0 */
 213:Core/Src/stm32f4xx_it.c **** 
 214:Core/Src/stm32f4xx_it.c ****   /* USER CODE END SysTick_IRQn 0 */
 215:Core/Src/stm32f4xx_it.c ****   HAL_IncTick();
 217              		.loc 1 215 3 view .LVU27
 218 0004 FFF7FEFF 		bl	HAL_IncTick
 219              	.LVL0:
 216:Core/Src/stm32f4xx_it.c ****   /* USER CODE BEGIN SysTick_IRQn 1 */
 217:Core/Src/stm32f4xx_it.c **** 
 218:Core/Src/stm32f4xx_it.c ****   if (SysTick_20Sec_Counter == BAROMETER_TEMPERATURE_PUT) {
 220              		.loc 1 218 3 view .LVU28
 221              		.loc 1 218 29 is_stmt 0 view .LVU29
 222 0008 334B     		ldr	r3, .L24
 223 000a 1A68     		ldr	r2, [r3]
 224              		.loc 1 218 6 view .LVU30
 225 000c 44F6EE53 		movw	r3, #19950
 226 0010 9A42     		cmp	r2, r3
 227 0012 17D0     		beq	.L20
 228              	.L15:
 219:Core/Src/stm32f4xx_it.c ****     HAL_I2C_Mem_Write(&hi2c1, bmp180_addr, 0xF4, 1, &cmd, 1, HAL_MAX_DELAY);
 220:Core/Src/stm32f4xx_it.c ****     //HAL_UART_Transmit(&huart2, (uint8_t*)"temperature: measuring...", sizeof("temperature: measur
 221:Core/Src/stm32f4xx_it.c ****   }
 222:Core/Src/stm32f4xx_it.c ****   if (SysTick_20Sec_Counter == BAROMETER_TEMPERATURE_GET) {
 229              		.loc 1 222 3 is_stmt 1 view .LVU31
 230              		.loc 1 222 29 is_stmt 0 view .LVU32
 231 0014 304B     		ldr	r3, .L24
 232 0016 1A68     		ldr	r2, [r3]
 233              		.loc 1 222 6 view .LVU33
 234 0018 44F60163 		movw	r3, #19969
 235 001c 9A42     		cmp	r2, r3
 236 001e 1FD0     		beq	.L21
 237              	.L16:
 223:Core/Src/stm32f4xx_it.c ****     //HAL_UART_Transmit(&huart2, (uint8_t*)"getting: temperature", sizeof("getting: temperature")-1
 224:Core/Src/stm32f4xx_it.c ****     temperature_result = bmp180_get_temperature();
 225:Core/Src/stm32f4xx_it.c ****     /*snprintf(GLOBAL_MESSAGE_BUFFER, sizeof(GLOBAL_MESSAGE_BUFFER), "%.2ld", temperature_result);
 226:Core/Src/stm32f4xx_it.c ****     lcd1602_transmit_command(0b10000000);
 227:Core/Src/stm32f4xx_it.c ****     lcd1602_send_string(GLOBAL_MESSAGE_BUFFER);*/
 228:Core/Src/stm32f4xx_it.c ****     /*snprintf(GLOBAL_MESSAGE_BUFFER, sizeof(GLOBAL_MESSAGE_BUFFER), "%.2ld", temperature_result);
ARM GAS  /tmp/cckXdCGu.s 			page 9


 229:Core/Src/stm32f4xx_it.c ****     lcd1602_transmit_command(0b10000000);
 230:Core/Src/stm32f4xx_it.c ****     lcd1602_send_string(GLOBAL_MESSAGE_BUFFER);*/
 231:Core/Src/stm32f4xx_it.c ****   }
 232:Core/Src/stm32f4xx_it.c ****   if (SysTick_20Sec_Counter == BAROMETER_PRESSURE_PUT) {
 238              		.loc 1 232 3 is_stmt 1 view .LVU34
 239              		.loc 1 232 29 is_stmt 0 view .LVU35
 240 0020 2D4B     		ldr	r3, .L24
 241 0022 1A68     		ldr	r2, [r3]
 242              		.loc 1 232 6 view .LVU36
 243 0024 44F60263 		movw	r3, #19970
 244 0028 9A42     		cmp	r2, r3
 245 002a 1ED0     		beq	.L22
 246              	.L17:
 233:Core/Src/stm32f4xx_it.c ****     uint8_t pressure_cmd = 0x34 + (OSS << 6);
 234:Core/Src/stm32f4xx_it.c ****     HAL_I2C_Mem_Write(&hi2c1, bmp180_addr, 0xF4, 1, &pressure_cmd, sizeof(pressure_cmd), HAL_MAX_DE
 235:Core/Src/stm32f4xx_it.c ****   }
 236:Core/Src/stm32f4xx_it.c ****   if (SysTick_20Sec_Counter == BAROMETER_PRESSURE_GET) {
 247              		.loc 1 236 3 is_stmt 1 view .LVU37
 248              		.loc 1 236 29 is_stmt 0 view .LVU38
 249 002c 2A4B     		ldr	r3, .L24
 250 002e 1A68     		ldr	r2, [r3]
 251              		.loc 1 236 6 view .LVU39
 252 0030 44F62063 		movw	r3, #20000
 253 0034 9A42     		cmp	r2, r3
 254 0036 2AD0     		beq	.L23
 255              	.L18:
 237:Core/Src/stm32f4xx_it.c ****     SysTick_20Sec_Counter = 0;
 238:Core/Src/stm32f4xx_it.c ****     //HAL_UART_Transmit(&huart2, (uint8_t*)"getting: presure", sizeof("getting: presure")-1, HAL_MA
 239:Core/Src/stm32f4xx_it.c ****     pressure_result = bmp180_get_pressure() / 133.322f;
 240:Core/Src/stm32f4xx_it.c ****     snprintf(GLOBAL_MESSAGE_BUFFER, sizeof(GLOBAL_MESSAGE_BUFFER), "%.2ld\n, %.2ld\n", pressure_res
 241:Core/Src/stm32f4xx_it.c ****     //HAL_UART_Transmit(&huart2, (uint8_t*)GLOBAL_MESSAGE_BUFFER, sizeof(GLOBAL_MESSAGE_BUFFER)-1, 
 242:Core/Src/stm32f4xx_it.c ****     lcd1602_transmit_command(0b10000000);
 243:Core/Src/stm32f4xx_it.c ****     lcd1602_send_string(GLOBAL_MESSAGE_BUFFER);
 244:Core/Src/stm32f4xx_it.c ****   }
 245:Core/Src/stm32f4xx_it.c ****   SysTick_20Sec_Counter++;
 256              		.loc 1 245 3 is_stmt 1 view .LVU40
 257              		.loc 1 245 24 is_stmt 0 view .LVU41
 258 0038 274A     		ldr	r2, .L24
 259 003a 1368     		ldr	r3, [r2]
 260 003c 0133     		adds	r3, r3, #1
 261 003e 1360     		str	r3, [r2]
 246:Core/Src/stm32f4xx_it.c ****   
 247:Core/Src/stm32f4xx_it.c ****   /*if (SysTick_20Sec_Counter == 3000) {
 248:Core/Src/stm32f4xx_it.c ****     if (SysTick_BMP180_Temperature_Delay == 10) {
 249:Core/Src/stm32f4xx_it.c ****       current_state_is_write = true;
 250:Core/Src/stm32f4xx_it.c ****       SysTick_BMP180_Temperature_Delay = 0;
 251:Core/Src/stm32f4xx_it.c ****       HAL_I2C_Mem_Write(&hi2c1, bmp180_addr, 0xF4, 1, &cmd, 1, HAL_MAX_DELAY);
 252:Core/Src/stm32f4xx_it.c ****     } else {
 253:Core/Src/stm32f4xx_it.c ****       current_state_is_write = true;
 254:Core/Src/stm32f4xx_it.c ****       SysTick_BMP180_Temperature_Delay++;
 255:Core/Src/stm32f4xx_it.c ****       int32_t temperature_result = bmp180_get_temperature();
 256:Core/Src/stm32f4xx_it.c ****       char msg_temperature[20] = {0};
 257:Core/Src/stm32f4xx_it.c ****       snprintf(msg_temperature, sizeof(msg_temperature), "%.2d", temperature_result);
 258:Core/Src/stm32f4xx_it.c ****       lcd1602_send_string(msg_temperature);
 259:Core/Src/stm32f4xx_it.c ****     }
 260:Core/Src/stm32f4xx_it.c ****     current_state_is_write = false;
 261:Core/Src/stm32f4xx_it.c ****   }
ARM GAS  /tmp/cckXdCGu.s 			page 10


 262:Core/Src/stm32f4xx_it.c ****   SysTick_20Sec_Counter++;*/
 263:Core/Src/stm32f4xx_it.c **** 
 264:Core/Src/stm32f4xx_it.c ****   /* USER CODE END SysTick_IRQn 1 */
 265:Core/Src/stm32f4xx_it.c **** }
 262              		.loc 1 265 1 view .LVU42
 263 0040 06B0     		add	sp, sp, #24
 264              	.LCFI2:
 265              		.cfi_remember_state
 266              		.cfi_def_cfa_offset 8
 267              		@ sp needed
 268 0042 10BD     		pop	{r4, pc}
 269              	.L20:
 270              	.LCFI3:
 271              		.cfi_restore_state
 219:Core/Src/stm32f4xx_it.c ****     //HAL_UART_Transmit(&huart2, (uint8_t*)"temperature: measuring...", sizeof("temperature: measur
 272              		.loc 1 219 5 is_stmt 1 view .LVU43
 273 0044 4FF0FF33 		mov	r3, #-1
 274 0048 0293     		str	r3, [sp, #8]
 275 004a 0123     		movs	r3, #1
 276 004c 0193     		str	r3, [sp, #4]
 277 004e 234A     		ldr	r2, .L24+4
 278 0050 0092     		str	r2, [sp]
 279 0052 F422     		movs	r2, #244
 280 0054 2249     		ldr	r1, .L24+8
 281 0056 0988     		ldrh	r1, [r1]
 282 0058 2248     		ldr	r0, .L24+12
 283 005a FFF7FEFF 		bl	HAL_I2C_Mem_Write
 284              	.LVL1:
 285 005e D9E7     		b	.L15
 286              	.L21:
 224:Core/Src/stm32f4xx_it.c ****     /*snprintf(GLOBAL_MESSAGE_BUFFER, sizeof(GLOBAL_MESSAGE_BUFFER), "%.2ld", temperature_result);
 287              		.loc 1 224 5 view .LVU44
 224:Core/Src/stm32f4xx_it.c ****     /*snprintf(GLOBAL_MESSAGE_BUFFER, sizeof(GLOBAL_MESSAGE_BUFFER), "%.2ld", temperature_result);
 288              		.loc 1 224 26 is_stmt 0 view .LVU45
 289 0060 FFF7FEFF 		bl	bmp180_get_temperature
 290              	.LVL2:
 224:Core/Src/stm32f4xx_it.c ****     /*snprintf(GLOBAL_MESSAGE_BUFFER, sizeof(GLOBAL_MESSAGE_BUFFER), "%.2ld", temperature_result);
 291              		.loc 1 224 24 discriminator 1 view .LVU46
 292 0064 204B     		ldr	r3, .L24+16
 293 0066 1860     		str	r0, [r3]
 294 0068 DAE7     		b	.L16
 295              	.L22:
 296              	.LBB2:
 233:Core/Src/stm32f4xx_it.c ****     HAL_I2C_Mem_Write(&hi2c1, bmp180_addr, 0xF4, 1, &pressure_cmd, sizeof(pressure_cmd), HAL_MAX_DE
 297              		.loc 1 233 5 is_stmt 1 view .LVU47
 233:Core/Src/stm32f4xx_it.c ****     HAL_I2C_Mem_Write(&hi2c1, bmp180_addr, 0xF4, 1, &pressure_cmd, sizeof(pressure_cmd), HAL_MAX_DE
 298              		.loc 1 233 13 is_stmt 0 view .LVU48
 299 006a 3423     		movs	r3, #52
 300 006c 8DF81730 		strb	r3, [sp, #23]
 234:Core/Src/stm32f4xx_it.c ****   }
 301              		.loc 1 234 5 is_stmt 1 view .LVU49
 302 0070 4FF0FF33 		mov	r3, #-1
 303 0074 0293     		str	r3, [sp, #8]
 304 0076 0123     		movs	r3, #1
 305 0078 0193     		str	r3, [sp, #4]
 306 007a 0DF11702 		add	r2, sp, #23
 307 007e 0092     		str	r2, [sp]
ARM GAS  /tmp/cckXdCGu.s 			page 11


 308 0080 F422     		movs	r2, #244
 309 0082 1749     		ldr	r1, .L24+8
 310 0084 0988     		ldrh	r1, [r1]
 311 0086 1748     		ldr	r0, .L24+12
 312 0088 FFF7FEFF 		bl	HAL_I2C_Mem_Write
 313              	.LVL3:
 314 008c CEE7     		b	.L17
 315              	.L23:
 316              	.LBE2:
 237:Core/Src/stm32f4xx_it.c ****     //HAL_UART_Transmit(&huart2, (uint8_t*)"getting: presure", sizeof("getting: presure")-1, HAL_MA
 317              		.loc 1 237 5 view .LVU50
 237:Core/Src/stm32f4xx_it.c ****     //HAL_UART_Transmit(&huart2, (uint8_t*)"getting: presure", sizeof("getting: presure")-1, HAL_MA
 318              		.loc 1 237 27 is_stmt 0 view .LVU51
 319 008e 124B     		ldr	r3, .L24
 320 0090 0022     		movs	r2, #0
 321 0092 1A60     		str	r2, [r3]
 239:Core/Src/stm32f4xx_it.c ****     snprintf(GLOBAL_MESSAGE_BUFFER, sizeof(GLOBAL_MESSAGE_BUFFER), "%.2ld\n, %.2ld\n", pressure_res
 322              		.loc 1 239 5 is_stmt 1 view .LVU52
 239:Core/Src/stm32f4xx_it.c ****     snprintf(GLOBAL_MESSAGE_BUFFER, sizeof(GLOBAL_MESSAGE_BUFFER), "%.2ld\n, %.2ld\n", pressure_res
 323              		.loc 1 239 23 is_stmt 0 view .LVU53
 324 0094 FFF7FEFF 		bl	bmp180_get_pressure
 325              	.LVL4:
 326 0098 07EE100A 		vmov	s14, r0	@ int
 239:Core/Src/stm32f4xx_it.c ****     snprintf(GLOBAL_MESSAGE_BUFFER, sizeof(GLOBAL_MESSAGE_BUFFER), "%.2ld\n, %.2ld\n", pressure_res
 327              		.loc 1 239 45 discriminator 1 view .LVU54
 328 009c B8EEC77A 		vcvt.f32.s32	s14, s14
 329 00a0 DFED126A 		vldr.32	s13, .L24+20
 330 00a4 C7EE267A 		vdiv.f32	s15, s14, s13
 239:Core/Src/stm32f4xx_it.c ****     snprintf(GLOBAL_MESSAGE_BUFFER, sizeof(GLOBAL_MESSAGE_BUFFER), "%.2ld\n, %.2ld\n", pressure_res
 331              		.loc 1 239 21 discriminator 1 view .LVU55
 332 00a8 FDEEE77A 		vcvt.s32.f32	s15, s15
 333 00ac 17EE903A 		vmov	r3, s15	@ int
 334 00b0 0F4A     		ldr	r2, .L24+24
 335 00b2 C2ED007A 		vstr.32	s15, [r2]	@ int
 240:Core/Src/stm32f4xx_it.c ****     //HAL_UART_Transmit(&huart2, (uint8_t*)GLOBAL_MESSAGE_BUFFER, sizeof(GLOBAL_MESSAGE_BUFFER)-1, 
 336              		.loc 1 240 5 is_stmt 1 view .LVU56
 337 00b6 0F4C     		ldr	r4, .L24+28
 338 00b8 0B4A     		ldr	r2, .L24+16
 339 00ba 1268     		ldr	r2, [r2]
 340 00bc 0092     		str	r2, [sp]
 341 00be 0E4A     		ldr	r2, .L24+32
 342 00c0 1E21     		movs	r1, #30
 343 00c2 2046     		mov	r0, r4
 344 00c4 FFF7FEFF 		bl	snprintf
 345              	.LVL5:
 242:Core/Src/stm32f4xx_it.c ****     lcd1602_send_string(GLOBAL_MESSAGE_BUFFER);
 346              		.loc 1 242 5 view .LVU57
 347 00c8 8020     		movs	r0, #128
 348 00ca FFF7FEFF 		bl	lcd1602_transmit_command
 349              	.LVL6:
 243:Core/Src/stm32f4xx_it.c ****   }
 350              		.loc 1 243 5 view .LVU58
 351 00ce 2046     		mov	r0, r4
 352 00d0 FFF7FEFF 		bl	lcd1602_send_string
 353              	.LVL7:
 354 00d4 B0E7     		b	.L18
 355              	.L25:
ARM GAS  /tmp/cckXdCGu.s 			page 12


 356 00d6 00BF     		.align	2
 357              	.L24:
 358 00d8 00000000 		.word	SysTick_20Sec_Counter
 359 00dc 00000000 		.word	cmd
 360 00e0 00000000 		.word	bmp180_addr
 361 00e4 00000000 		.word	hi2c1
 362 00e8 00000000 		.word	temperature_result
 363 00ec 6F520543 		.word	1124422255
 364 00f0 00000000 		.word	pressure_result
 365 00f4 00000000 		.word	GLOBAL_MESSAGE_BUFFER
 366 00f8 00000000 		.word	.LC0
 367              		.cfi_endproc
 368              	.LFE145:
 370              		.global	pressure_result
 371              		.section	.bss.pressure_result,"aw",%nobits
 372              		.align	2
 375              	pressure_result:
 376 0000 00000000 		.space	4
 377              		.global	temperature_result
 378              		.section	.bss.temperature_result,"aw",%nobits
 379              		.align	2
 382              	temperature_result:
 383 0000 00000000 		.space	4
 384              		.global	current_state_is_write
 385              		.section	.bss.current_state_is_write,"aw",%nobits
 388              	current_state_is_write:
 389 0000 00       		.space	1
 390              		.global	message_count
 391              		.section	.bss.message_count,"aw",%nobits
 392              		.align	2
 395              	message_count:
 396 0000 00000000 		.space	32
 396      00000000 
 396      00000000 
 396      00000000 
 396      00000000 
 397              		.section	.bss.SysTick_20Sec_Counter,"aw",%nobits
 398              		.align	2
 401              	SysTick_20Sec_Counter:
 402 0000 00000000 		.space	4
 403              		.text
 404              	.Letext0:
 405              		.file 2 "/home/mike/bin/arm-gnu-toolchain-14.3.rel1-x86_64-arm-none-eabi/arm-none-eabi/include/mac
 406              		.file 3 "/home/mike/bin/arm-gnu-toolchain-14.3.rel1-x86_64-arm-none-eabi/arm-none-eabi/include/sys
 407              		.file 4 "Drivers/CMSIS/Device/ST/STM32F4xx/Include/stm32f401xe.h"
 408              		.file 5 "Drivers/STM32F4xx_HAL_Driver/Inc/stm32f4xx_hal_def.h"
 409              		.file 6 "Drivers/STM32F4xx_HAL_Driver/Inc/stm32f4xx_hal_dma.h"
 410              		.file 7 "Drivers/STM32F4xx_HAL_Driver/Inc/stm32f4xx_hal_i2c.h"
 411              		.file 8 "Core/Src/transmit_and_recieve_control/transmit_and_recieve_control.h"
 412              		.file 9 "/home/mike/bin/arm-gnu-toolchain-14.3.rel1-x86_64-arm-none-eabi/arm-none-eabi/include/std
 413              		.file 10 "Drivers/STM32F4xx_HAL_Driver/Inc/stm32f4xx_hal.h"
ARM GAS  /tmp/cckXdCGu.s 			page 13

