ARM GAS  /tmp/ccbIBmss.s 			page 1


   1              		.cpu cortex-m4
   2              		.arch armv7e-m
   3              		.fpu fpv4-sp-d16
   4              		.eabi_attribute 27, 1
   5              		.eabi_attribute 28, 1
   6              		.eabi_attribute 20, 1
   7              		.eabi_attribute 21, 1
   8              		.eabi_attribute 23, 3
   9              		.eabi_attribute 24, 1
  10              		.eabi_attribute 25, 1
  11              		.eabi_attribute 26, 1
  12              		.eabi_attribute 30, 1
  13              		.eabi_attribute 34, 1
  14              		.eabi_attribute 18, 4
  15              		.file	"stm32f4xx_it.c"
  16              		.text
  17              	.Ltext0:
  18              		.cfi_sections	.debug_frame
  19              		.file 1 "Core/Src/stm32f4xx_it.c"
  20              		.section	.text.NMI_Handler,"ax",%progbits
  21              		.align	1
  22              		.global	NMI_Handler
  23              		.syntax unified
  24              		.thumb
  25              		.thumb_func
  27              	NMI_Handler:
  28              	.LFB137:
   1:Core/Src/stm32f4xx_it.c **** /* USER CODE BEGIN Header */
   2:Core/Src/stm32f4xx_it.c **** /**
   3:Core/Src/stm32f4xx_it.c ****   ******************************************************************************
   4:Core/Src/stm32f4xx_it.c ****   * @file    stm32f4xx_it.c
   5:Core/Src/stm32f4xx_it.c ****   * @brief   Interrupt Service Routines.
   6:Core/Src/stm32f4xx_it.c ****   ******************************************************************************
   7:Core/Src/stm32f4xx_it.c ****   * @attention
   8:Core/Src/stm32f4xx_it.c ****   *
   9:Core/Src/stm32f4xx_it.c ****   * Copyright (c) 2025 STMicroelectronics.
  10:Core/Src/stm32f4xx_it.c ****   * All rights reserved.
  11:Core/Src/stm32f4xx_it.c ****   *
  12:Core/Src/stm32f4xx_it.c ****   * This software is licensed under terms that can be found in the LICENSE file
  13:Core/Src/stm32f4xx_it.c ****   * in the root directory of this software component.
  14:Core/Src/stm32f4xx_it.c ****   * If no LICENSE file comes with this software, it is provided AS-IS.
  15:Core/Src/stm32f4xx_it.c ****   *
  16:Core/Src/stm32f4xx_it.c ****   ******************************************************************************
  17:Core/Src/stm32f4xx_it.c ****   */
  18:Core/Src/stm32f4xx_it.c **** /* USER CODE END Header */
  19:Core/Src/stm32f4xx_it.c **** 
  20:Core/Src/stm32f4xx_it.c **** /* Includes ------------------------------------------------------------------*/
  21:Core/Src/stm32f4xx_it.c **** #include "main.h"
  22:Core/Src/stm32f4xx_it.c **** #include "stm32f4xx_it.h"
  23:Core/Src/stm32f4xx_it.c **** /* Private includes ----------------------------------------------------------*/
  24:Core/Src/stm32f4xx_it.c **** /* USER CODE BEGIN Includes */
  25:Core/Src/stm32f4xx_it.c **** #include <stdbool.h>
  26:Core/Src/stm32f4xx_it.c **** #include <stdio.h>
  27:Core/Src/stm32f4xx_it.c **** #include "transmit_and_recieve_control/transmit_and_recieve_control.h"
  28:Core/Src/stm32f4xx_it.c **** #include <string.h>
  29:Core/Src/stm32f4xx_it.c **** /* USER CODE END Includes */
  30:Core/Src/stm32f4xx_it.c **** 
ARM GAS  /tmp/ccbIBmss.s 			page 2


  31:Core/Src/stm32f4xx_it.c **** /* Private typedef -----------------------------------------------------------*/
  32:Core/Src/stm32f4xx_it.c **** /* USER CODE BEGIN TD */
  33:Core/Src/stm32f4xx_it.c **** 
  34:Core/Src/stm32f4xx_it.c **** /* USER CODE END TD */
  35:Core/Src/stm32f4xx_it.c **** 
  36:Core/Src/stm32f4xx_it.c **** /* Private define ------------------------------------------------------------*/
  37:Core/Src/stm32f4xx_it.c **** /* USER CODE BEGIN PD */
  38:Core/Src/stm32f4xx_it.c **** #define HUMIDITY_PUT 19849
  39:Core/Src/stm32f4xx_it.c **** #define HUMIDITY_GET 19949
  40:Core/Src/stm32f4xx_it.c **** 
  41:Core/Src/stm32f4xx_it.c **** #define TEMPERATURE_PUT 19950
  42:Core/Src/stm32f4xx_it.c **** #define TEMPERATURE_GET 19969
  43:Core/Src/stm32f4xx_it.c **** 
  44:Core/Src/stm32f4xx_it.c **** #define PRESSURE_PUT 19970
  45:Core/Src/stm32f4xx_it.c **** #define PRESSURE_GET 20000
  46:Core/Src/stm32f4xx_it.c **** 
  47:Core/Src/stm32f4xx_it.c **** #define OSS 0
  48:Core/Src/stm32f4xx_it.c **** /* USER CODE END PD */
  49:Core/Src/stm32f4xx_it.c **** 
  50:Core/Src/stm32f4xx_it.c **** /* Private macro -------------------------------------------------------------*/
  51:Core/Src/stm32f4xx_it.c **** /* USER CODE BEGIN PM */
  52:Core/Src/stm32f4xx_it.c **** 
  53:Core/Src/stm32f4xx_it.c **** /* USER CODE END PM */
  54:Core/Src/stm32f4xx_it.c **** 
  55:Core/Src/stm32f4xx_it.c **** /* Private variables ---------------------------------------------------------*/
  56:Core/Src/stm32f4xx_it.c **** /* USER CODE BEGIN PV */
  57:Core/Src/stm32f4xx_it.c **** static unsigned int SysTick_20Sec_Counter = 0;
  58:Core/Src/stm32f4xx_it.c **** static unsigned int SysTick_1Sec_Counter_mode0 = 0;
  59:Core/Src/stm32f4xx_it.c **** static unsigned int SysTick_1Sec_Counter_mode1 = 0;
  60:Core/Src/stm32f4xx_it.c **** static unsigned int SysTick_1Sec_Counter_mode2 = 0;
  61:Core/Src/stm32f4xx_it.c **** static unsigned int SysTick_30Msec_Counter = 0;
  62:Core/Src/stm32f4xx_it.c **** //static unsigned int SysTick_1Minute_Counter = 0;
  63:Core/Src/stm32f4xx_it.c **** //static Data Log[LOG_SIZE] = {0};
  64:Core/Src/stm32f4xx_it.c **** //static unsigned char LogCounter = 0;
  65:Core/Src/stm32f4xx_it.c **** extern RTC_TimeTypeDef time;
  66:Core/Src/stm32f4xx_it.c **** extern RTC_DateTypeDef date;
  67:Core/Src/stm32f4xx_it.c **** extern RTC_HandleTypeDef hrtc;
  68:Core/Src/stm32f4xx_it.c **** extern UART_HandleTypeDef huart2;
  69:Core/Src/stm32f4xx_it.c **** extern char msg_time[32];
  70:Core/Src/stm32f4xx_it.c **** extern Data journal[5];
  71:Core/Src/stm32f4xx_it.c **** extern int count;
  72:Core/Src/stm32f4xx_it.c **** extern int32_t temperature;
  73:Core/Src/stm32f4xx_it.c **** extern int32_t pressure;
  74:Core/Src/stm32f4xx_it.c **** extern I2C_HandleTypeDef hi2c1;
  75:Core/Src/stm32f4xx_it.c **** char message_count[32] = {0};
  76:Core/Src/stm32f4xx_it.c **** bool current_state_is_write = false;
  77:Core/Src/stm32f4xx_it.c **** extern uint8_t cmd;
  78:Core/Src/stm32f4xx_it.c **** extern uint16_t lcd1604_addr;
  79:Core/Src/stm32f4xx_it.c **** extern uint16_t bmp180_addr;
  80:Core/Src/stm32f4xx_it.c **** extern char GLOBAL_MESSAGE_BUFFER[30];
  81:Core/Src/stm32f4xx_it.c **** int32_t temperature_result = 0;
  82:Core/Src/stm32f4xx_it.c **** int32_t pressure_result = 0;
  83:Core/Src/stm32f4xx_it.c **** 
  84:Core/Src/stm32f4xx_it.c **** extern uint16_t aht10_addr;
  85:Core/Src/stm32f4xx_it.c **** extern uint8_t AHT10_RX_Data[6];
  86:Core/Src/stm32f4xx_it.c **** extern uint32_t AHT10_ADC_Raw;
  87:Core/Src/stm32f4xx_it.c **** extern float AHT10_Temperature;
ARM GAS  /tmp/ccbIBmss.s 			page 3


  88:Core/Src/stm32f4xx_it.c **** extern float AHT10_Humidity;
  89:Core/Src/stm32f4xx_it.c **** extern uint8_t AHT10_MeasCmd[3];
  90:Core/Src/stm32f4xx_it.c **** extern uint8_t AHT10_InitCmd[3];
  91:Core/Src/stm32f4xx_it.c **** extern char aht10_initialization_command;
  92:Core/Src/stm32f4xx_it.c **** extern uint8_t aht10_init_command[1];
  93:Core/Src/stm32f4xx_it.c **** extern uint8_t aht10_measurement_command[3];
  94:Core/Src/stm32f4xx_it.c **** //unsigned int counter_1s = 0;
  95:Core/Src/stm32f4xx_it.c **** 
  96:Core/Src/stm32f4xx_it.c **** static unsigned int current_mode = 0;
  97:Core/Src/stm32f4xx_it.c **** /* USER CODE END PV */
  98:Core/Src/stm32f4xx_it.c **** 
  99:Core/Src/stm32f4xx_it.c **** /* Private function prototypes -----------------------------------------------*/
 100:Core/Src/stm32f4xx_it.c **** /* USER CODE BEGIN PFP */
 101:Core/Src/stm32f4xx_it.c **** void GetData(void);
 102:Core/Src/stm32f4xx_it.c **** int AveragingData(void);
 103:Core/Src/stm32f4xx_it.c **** void LogData(Data Current);
 104:Core/Src/stm32f4xx_it.c **** /* USER CODE END PFP */
 105:Core/Src/stm32f4xx_it.c **** 
 106:Core/Src/stm32f4xx_it.c **** /* Private user code ---------------------------------------------------------*/
 107:Core/Src/stm32f4xx_it.c **** /* USER CODE BEGIN 0 */
 108:Core/Src/stm32f4xx_it.c **** 
 109:Core/Src/stm32f4xx_it.c **** /* USER CODE END 0 */
 110:Core/Src/stm32f4xx_it.c **** 
 111:Core/Src/stm32f4xx_it.c **** /* External variables --------------------------------------------------------*/
 112:Core/Src/stm32f4xx_it.c **** 
 113:Core/Src/stm32f4xx_it.c **** /* USER CODE BEGIN EV */
 114:Core/Src/stm32f4xx_it.c **** 
 115:Core/Src/stm32f4xx_it.c **** /* USER CODE END EV */
 116:Core/Src/stm32f4xx_it.c **** 
 117:Core/Src/stm32f4xx_it.c **** /******************************************************************************/
 118:Core/Src/stm32f4xx_it.c **** /*           Cortex-M4 Processor Interruption and Exception Handlers          */
 119:Core/Src/stm32f4xx_it.c **** /******************************************************************************/
 120:Core/Src/stm32f4xx_it.c **** /**
 121:Core/Src/stm32f4xx_it.c ****   * @brief This function handles Non maskable interrupt.
 122:Core/Src/stm32f4xx_it.c ****   */
 123:Core/Src/stm32f4xx_it.c **** void NMI_Handler(void)
 124:Core/Src/stm32f4xx_it.c **** {
  29              		.loc 1 124 1 view -0
  30              		.cfi_startproc
  31              		@ Volatile: function does not return.
  32              		@ args = 0, pretend = 0, frame = 0
  33              		@ frame_needed = 0, uses_anonymous_args = 0
  34              		@ link register save eliminated.
  35              	.L2:
 125:Core/Src/stm32f4xx_it.c ****   /* USER CODE BEGIN NonMaskableInt_IRQn 0 */
 126:Core/Src/stm32f4xx_it.c **** 
 127:Core/Src/stm32f4xx_it.c ****   /* USER CODE END NonMaskableInt_IRQn 0 */
 128:Core/Src/stm32f4xx_it.c ****   /* USER CODE BEGIN NonMaskableInt_IRQn 1 */
 129:Core/Src/stm32f4xx_it.c ****    while (1)
  36              		.loc 1 129 4 view .LVU1
 130:Core/Src/stm32f4xx_it.c ****   {
 131:Core/Src/stm32f4xx_it.c ****   }
  37              		.loc 1 131 3 view .LVU2
 129:Core/Src/stm32f4xx_it.c ****   {
  38              		.loc 1 129 10 view .LVU3
  39 0000 FEE7     		b	.L2
  40              		.cfi_endproc
ARM GAS  /tmp/ccbIBmss.s 			page 4


  41              	.LFE137:
  43              		.section	.text.HardFault_Handler,"ax",%progbits
  44              		.align	1
  45              		.global	HardFault_Handler
  46              		.syntax unified
  47              		.thumb
  48              		.thumb_func
  50              	HardFault_Handler:
  51              	.LFB138:
 132:Core/Src/stm32f4xx_it.c ****   /* USER CODE END NonMaskableInt_IRQn 1 */
 133:Core/Src/stm32f4xx_it.c **** }
 134:Core/Src/stm32f4xx_it.c **** 
 135:Core/Src/stm32f4xx_it.c **** /**
 136:Core/Src/stm32f4xx_it.c ****   * @brief This function handles Hard fault interrupt.
 137:Core/Src/stm32f4xx_it.c ****   */
 138:Core/Src/stm32f4xx_it.c **** void HardFault_Handler(void)
 139:Core/Src/stm32f4xx_it.c **** {
  52              		.loc 1 139 1 view -0
  53              		.cfi_startproc
  54              		@ Volatile: function does not return.
  55              		@ args = 0, pretend = 0, frame = 0
  56              		@ frame_needed = 0, uses_anonymous_args = 0
  57              		@ link register save eliminated.
  58              	.L4:
 140:Core/Src/stm32f4xx_it.c ****   /* USER CODE BEGIN HardFault_IRQn 0 */
 141:Core/Src/stm32f4xx_it.c **** 
 142:Core/Src/stm32f4xx_it.c ****   /* USER CODE END HardFault_IRQn 0 */
 143:Core/Src/stm32f4xx_it.c ****   while (1)
  59              		.loc 1 143 3 view .LVU5
 144:Core/Src/stm32f4xx_it.c ****   {
 145:Core/Src/stm32f4xx_it.c ****     /* USER CODE BEGIN W1_HardFault_IRQn 0 */
 146:Core/Src/stm32f4xx_it.c ****     /* USER CODE END W1_HardFault_IRQn 0 */
 147:Core/Src/stm32f4xx_it.c ****   }
  60              		.loc 1 147 3 view .LVU6
 143:Core/Src/stm32f4xx_it.c ****   {
  61              		.loc 1 143 9 view .LVU7
  62 0000 FEE7     		b	.L4
  63              		.cfi_endproc
  64              	.LFE138:
  66              		.section	.text.MemManage_Handler,"ax",%progbits
  67              		.align	1
  68              		.global	MemManage_Handler
  69              		.syntax unified
  70              		.thumb
  71              		.thumb_func
  73              	MemManage_Handler:
  74              	.LFB139:
 148:Core/Src/stm32f4xx_it.c **** }
 149:Core/Src/stm32f4xx_it.c **** 
 150:Core/Src/stm32f4xx_it.c **** /**
 151:Core/Src/stm32f4xx_it.c ****   * @brief This function handles Memory management fault.
 152:Core/Src/stm32f4xx_it.c ****   */
 153:Core/Src/stm32f4xx_it.c **** void MemManage_Handler(void)
 154:Core/Src/stm32f4xx_it.c **** {
  75              		.loc 1 154 1 view -0
  76              		.cfi_startproc
  77              		@ Volatile: function does not return.
ARM GAS  /tmp/ccbIBmss.s 			page 5


  78              		@ args = 0, pretend = 0, frame = 0
  79              		@ frame_needed = 0, uses_anonymous_args = 0
  80              		@ link register save eliminated.
  81              	.L6:
 155:Core/Src/stm32f4xx_it.c ****   /* USER CODE BEGIN MemoryManagement_IRQn 0 */
 156:Core/Src/stm32f4xx_it.c **** 
 157:Core/Src/stm32f4xx_it.c ****   /* USER CODE END MemoryManagement_IRQn 0 */
 158:Core/Src/stm32f4xx_it.c ****   while (1)
  82              		.loc 1 158 3 view .LVU9
 159:Core/Src/stm32f4xx_it.c ****   {
 160:Core/Src/stm32f4xx_it.c ****     /* USER CODE BEGIN W1_MemoryManagement_IRQn 0 */
 161:Core/Src/stm32f4xx_it.c ****     /* USER CODE END W1_MemoryManagement_IRQn 0 */
 162:Core/Src/stm32f4xx_it.c ****   }
  83              		.loc 1 162 3 view .LVU10
 158:Core/Src/stm32f4xx_it.c ****   {
  84              		.loc 1 158 9 view .LVU11
  85 0000 FEE7     		b	.L6
  86              		.cfi_endproc
  87              	.LFE139:
  89              		.section	.text.BusFault_Handler,"ax",%progbits
  90              		.align	1
  91              		.global	BusFault_Handler
  92              		.syntax unified
  93              		.thumb
  94              		.thumb_func
  96              	BusFault_Handler:
  97              	.LFB140:
 163:Core/Src/stm32f4xx_it.c **** }
 164:Core/Src/stm32f4xx_it.c **** 
 165:Core/Src/stm32f4xx_it.c **** /**
 166:Core/Src/stm32f4xx_it.c ****   * @brief This function handles Pre-fetch fault, memory access fault.
 167:Core/Src/stm32f4xx_it.c ****   */
 168:Core/Src/stm32f4xx_it.c **** void BusFault_Handler(void)
 169:Core/Src/stm32f4xx_it.c **** {
  98              		.loc 1 169 1 view -0
  99              		.cfi_startproc
 100              		@ Volatile: function does not return.
 101              		@ args = 0, pretend = 0, frame = 0
 102              		@ frame_needed = 0, uses_anonymous_args = 0
 103              		@ link register save eliminated.
 104              	.L8:
 170:Core/Src/stm32f4xx_it.c ****   /* USER CODE BEGIN BusFault_IRQn 0 */
 171:Core/Src/stm32f4xx_it.c **** 
 172:Core/Src/stm32f4xx_it.c ****   /* USER CODE END BusFault_IRQn 0 */
 173:Core/Src/stm32f4xx_it.c ****   while (1)
 105              		.loc 1 173 3 view .LVU13
 174:Core/Src/stm32f4xx_it.c ****   {
 175:Core/Src/stm32f4xx_it.c ****     /* USER CODE BEGIN W1_BusFault_IRQn 0 */
 176:Core/Src/stm32f4xx_it.c ****     /* USER CODE END W1_BusFault_IRQn 0 */
 177:Core/Src/stm32f4xx_it.c ****   }
 106              		.loc 1 177 3 view .LVU14
 173:Core/Src/stm32f4xx_it.c ****   {
 107              		.loc 1 173 9 view .LVU15
 108 0000 FEE7     		b	.L8
 109              		.cfi_endproc
 110              	.LFE140:
 112              		.section	.text.UsageFault_Handler,"ax",%progbits
ARM GAS  /tmp/ccbIBmss.s 			page 6


 113              		.align	1
 114              		.global	UsageFault_Handler
 115              		.syntax unified
 116              		.thumb
 117              		.thumb_func
 119              	UsageFault_Handler:
 120              	.LFB141:
 178:Core/Src/stm32f4xx_it.c **** }
 179:Core/Src/stm32f4xx_it.c **** 
 180:Core/Src/stm32f4xx_it.c **** /**
 181:Core/Src/stm32f4xx_it.c ****   * @brief This function handles Undefined instruction or illegal state.
 182:Core/Src/stm32f4xx_it.c ****   */
 183:Core/Src/stm32f4xx_it.c **** void UsageFault_Handler(void)
 184:Core/Src/stm32f4xx_it.c **** {
 121              		.loc 1 184 1 view -0
 122              		.cfi_startproc
 123              		@ Volatile: function does not return.
 124              		@ args = 0, pretend = 0, frame = 0
 125              		@ frame_needed = 0, uses_anonymous_args = 0
 126              		@ link register save eliminated.
 127              	.L10:
 185:Core/Src/stm32f4xx_it.c ****   /* USER CODE BEGIN UsageFault_IRQn 0 */
 186:Core/Src/stm32f4xx_it.c **** 
 187:Core/Src/stm32f4xx_it.c ****   /* USER CODE END UsageFault_IRQn 0 */
 188:Core/Src/stm32f4xx_it.c ****   while (1)
 128              		.loc 1 188 3 view .LVU17
 189:Core/Src/stm32f4xx_it.c ****   {
 190:Core/Src/stm32f4xx_it.c ****     /* USER CODE BEGIN W1_UsageFault_IRQn 0 */
 191:Core/Src/stm32f4xx_it.c ****     /* USER CODE END W1_UsageFault_IRQn 0 */
 192:Core/Src/stm32f4xx_it.c ****   }
 129              		.loc 1 192 3 view .LVU18
 188:Core/Src/stm32f4xx_it.c ****   {
 130              		.loc 1 188 9 view .LVU19
 131 0000 FEE7     		b	.L10
 132              		.cfi_endproc
 133              	.LFE141:
 135              		.section	.text.SVC_Handler,"ax",%progbits
 136              		.align	1
 137              		.global	SVC_Handler
 138              		.syntax unified
 139              		.thumb
 140              		.thumb_func
 142              	SVC_Handler:
 143              	.LFB142:
 193:Core/Src/stm32f4xx_it.c **** }
 194:Core/Src/stm32f4xx_it.c **** 
 195:Core/Src/stm32f4xx_it.c **** /**
 196:Core/Src/stm32f4xx_it.c ****   * @brief This function handles System service call via SWI instruction.
 197:Core/Src/stm32f4xx_it.c ****   */
 198:Core/Src/stm32f4xx_it.c **** void SVC_Handler(void)
 199:Core/Src/stm32f4xx_it.c **** {
 144              		.loc 1 199 1 view -0
 145              		.cfi_startproc
 146              		@ args = 0, pretend = 0, frame = 0
 147              		@ frame_needed = 0, uses_anonymous_args = 0
 148              		@ link register save eliminated.
 200:Core/Src/stm32f4xx_it.c ****   /* USER CODE BEGIN SVCall_IRQn 0 */
ARM GAS  /tmp/ccbIBmss.s 			page 7


 201:Core/Src/stm32f4xx_it.c **** 
 202:Core/Src/stm32f4xx_it.c ****   /* USER CODE END SVCall_IRQn 0 */
 203:Core/Src/stm32f4xx_it.c ****   /* USER CODE BEGIN SVCall_IRQn 1 */
 204:Core/Src/stm32f4xx_it.c **** 
 205:Core/Src/stm32f4xx_it.c ****   /* USER CODE END SVCall_IRQn 1 */
 206:Core/Src/stm32f4xx_it.c **** }
 149              		.loc 1 206 1 view .LVU21
 150 0000 7047     		bx	lr
 151              		.cfi_endproc
 152              	.LFE142:
 154              		.section	.text.DebugMon_Handler,"ax",%progbits
 155              		.align	1
 156              		.global	DebugMon_Handler
 157              		.syntax unified
 158              		.thumb
 159              		.thumb_func
 161              	DebugMon_Handler:
 162              	.LFB143:
 207:Core/Src/stm32f4xx_it.c **** 
 208:Core/Src/stm32f4xx_it.c **** /**
 209:Core/Src/stm32f4xx_it.c ****   * @brief This function handles Debug monitor.
 210:Core/Src/stm32f4xx_it.c ****   */
 211:Core/Src/stm32f4xx_it.c **** void DebugMon_Handler(void)
 212:Core/Src/stm32f4xx_it.c **** {
 163              		.loc 1 212 1 view -0
 164              		.cfi_startproc
 165              		@ args = 0, pretend = 0, frame = 0
 166              		@ frame_needed = 0, uses_anonymous_args = 0
 167              		@ link register save eliminated.
 213:Core/Src/stm32f4xx_it.c ****   /* USER CODE BEGIN DebugMonitor_IRQn 0 */
 214:Core/Src/stm32f4xx_it.c **** 
 215:Core/Src/stm32f4xx_it.c ****   /* USER CODE END DebugMonitor_IRQn 0 */
 216:Core/Src/stm32f4xx_it.c ****   /* USER CODE BEGIN DebugMonitor_IRQn 1 */
 217:Core/Src/stm32f4xx_it.c **** 
 218:Core/Src/stm32f4xx_it.c ****   /* USER CODE END DebugMonitor_IRQn 1 */
 219:Core/Src/stm32f4xx_it.c **** }
 168              		.loc 1 219 1 view .LVU23
 169 0000 7047     		bx	lr
 170              		.cfi_endproc
 171              	.LFE143:
 173              		.section	.text.PendSV_Handler,"ax",%progbits
 174              		.align	1
 175              		.global	PendSV_Handler
 176              		.syntax unified
 177              		.thumb
 178              		.thumb_func
 180              	PendSV_Handler:
 181              	.LFB144:
 220:Core/Src/stm32f4xx_it.c **** 
 221:Core/Src/stm32f4xx_it.c **** /**
 222:Core/Src/stm32f4xx_it.c ****   * @brief This function handles Pendable request for system service.
 223:Core/Src/stm32f4xx_it.c ****   */
 224:Core/Src/stm32f4xx_it.c **** void PendSV_Handler(void)
 225:Core/Src/stm32f4xx_it.c **** {
 182              		.loc 1 225 1 view -0
 183              		.cfi_startproc
 184              		@ args = 0, pretend = 0, frame = 0
ARM GAS  /tmp/ccbIBmss.s 			page 8


 185              		@ frame_needed = 0, uses_anonymous_args = 0
 186              		@ link register save eliminated.
 226:Core/Src/stm32f4xx_it.c ****   /* USER CODE BEGIN PendSV_IRQn 0 */
 227:Core/Src/stm32f4xx_it.c **** 
 228:Core/Src/stm32f4xx_it.c ****   /* USER CODE END PendSV_IRQn 0 */
 229:Core/Src/stm32f4xx_it.c ****   
 230:Core/Src/stm32f4xx_it.c ****   /* USER CODE BEGIN PendSV_IRQn 1 */
 231:Core/Src/stm32f4xx_it.c **** 
 232:Core/Src/stm32f4xx_it.c ****   /* USER CODE END PendSV_IRQn 1 */
 233:Core/Src/stm32f4xx_it.c **** }
 187              		.loc 1 233 1 view .LVU25
 188 0000 7047     		bx	lr
 189              		.cfi_endproc
 190              	.LFE144:
 192              		.section	.rodata.SysTick_Handler.str1.4,"aMS",%progbits,1
 193              		.align	2
 194              	.LC0:
 195 0000 25303264 		.ascii	"%02d:%02d:%02d\000"
 195      3A253032 
 195      643A2530 
 195      326400
 196 000f 00       		.align	2
 197              	.LC1:
 198 0010 252E326C 		.ascii	"%.2ld, %.2ld, %.2f\000"
 198      642C2025 
 198      2E326C64 
 198      2C20252E 
 198      326600
 199 0023 00       		.align	2
 200              	.LC2:
 201 0024 20202530 		.ascii	"  %02d\000"
 201      326400
 202              		.section	.text.SysTick_Handler,"ax",%progbits
 203              		.align	1
 204              		.global	SysTick_Handler
 205              		.syntax unified
 206              		.thumb
 207              		.thumb_func
 209              	SysTick_Handler:
 210              	.LFB145:
 234:Core/Src/stm32f4xx_it.c **** 
 235:Core/Src/stm32f4xx_it.c **** /**
 236:Core/Src/stm32f4xx_it.c ****   * @brief This function handles System tick timer.
 237:Core/Src/stm32f4xx_it.c ****   */
 238:Core/Src/stm32f4xx_it.c **** void SysTick_Handler(void)
 239:Core/Src/stm32f4xx_it.c **** {
 211              		.loc 1 239 1 view -0
 212              		.cfi_startproc
 213              		@ args = 0, pretend = 0, frame = 8
 214              		@ frame_needed = 0, uses_anonymous_args = 0
 215 0000 70B5     		push	{r4, r5, r6, lr}
 216              	.LCFI0:
 217              		.cfi_def_cfa_offset 16
 218              		.cfi_offset 4, -16
 219              		.cfi_offset 5, -12
 220              		.cfi_offset 6, -8
 221              		.cfi_offset 14, -4
ARM GAS  /tmp/ccbIBmss.s 			page 9


 222 0002 86B0     		sub	sp, sp, #24
 223              	.LCFI1:
 224              		.cfi_def_cfa_offset 40
 240:Core/Src/stm32f4xx_it.c ****   /* USER CODE BEGIN SysTick_IRQn 0 */
 241:Core/Src/stm32f4xx_it.c **** 
 242:Core/Src/stm32f4xx_it.c ****   /* USER CODE END SysTick_IRQn 0 */
 243:Core/Src/stm32f4xx_it.c ****   HAL_IncTick();
 225              		.loc 1 243 3 view .LVU27
 226 0004 FFF7FEFF 		bl	HAL_IncTick
 227              	.LVL0:
 244:Core/Src/stm32f4xx_it.c ****   /* USER CODE BEGIN SysTick_IRQn 1 */
 245:Core/Src/stm32f4xx_it.c **** 
 246:Core/Src/stm32f4xx_it.c ****   if (current_mode == 0) {
 228              		.loc 1 246 3 view .LVU28
 229              		.loc 1 246 20 is_stmt 0 view .LVU29
 230 0008 934B     		ldr	r3, .L39
 231 000a 1B68     		ldr	r3, [r3]
 232              		.loc 1 246 6 view .LVU30
 233 000c 002B     		cmp	r3, #0
 234 000e 30D1     		bne	.L15
 247:Core/Src/stm32f4xx_it.c ****     if (SysTick_20Sec_Counter == HUMIDITY_PUT) {
 235              		.loc 1 247 5 is_stmt 1 view .LVU31
 236              		.loc 1 247 31 is_stmt 0 view .LVU32
 237 0010 924B     		ldr	r3, .L39+4
 238 0012 1A68     		ldr	r2, [r3]
 239              		.loc 1 247 8 view .LVU33
 240 0014 44F68953 		movw	r3, #19849
 241 0018 9A42     		cmp	r2, r3
 242 001a 36D0     		beq	.L28
 243              	.L16:
 248:Core/Src/stm32f4xx_it.c ****       HAL_I2C_Master_Transmit(&hi2c1, aht10_addr, (uint8_t*)aht10_measurement_command, 3, HAL_MAX_D
 249:Core/Src/stm32f4xx_it.c ****     }
 250:Core/Src/stm32f4xx_it.c ****     if (SysTick_20Sec_Counter == HUMIDITY_GET) {
 244              		.loc 1 250 5 is_stmt 1 view .LVU34
 245              		.loc 1 250 31 is_stmt 0 view .LVU35
 246 001c 8F4B     		ldr	r3, .L39+4
 247 001e 1A68     		ldr	r2, [r3]
 248              		.loc 1 250 8 view .LVU36
 249 0020 44F6ED53 		movw	r3, #19949
 250 0024 9A42     		cmp	r2, r3
 251 0026 3BD0     		beq	.L29
 252              	.L17:
 251:Core/Src/stm32f4xx_it.c ****       HAL_I2C_Master_Receive(&hi2c1, aht10_addr, AHT10_RX_Data, 6, HAL_MAX_DELAY);
 252:Core/Src/stm32f4xx_it.c ****       AHT10_ADC_Raw = ((uint32_t)AHT10_RX_Data[1] << 12) | ((uint32_t)AHT10_RX_Data[2] << 4) | (AHT
 253:Core/Src/stm32f4xx_it.c ****     }
 254:Core/Src/stm32f4xx_it.c ****     if (SysTick_20Sec_Counter == TEMPERATURE_PUT) {
 253              		.loc 1 254 5 is_stmt 1 view .LVU37
 254              		.loc 1 254 31 is_stmt 0 view .LVU38
 255 0028 8C4B     		ldr	r3, .L39+4
 256 002a 1A68     		ldr	r2, [r3]
 257              		.loc 1 254 8 view .LVU39
 258 002c 44F6EE53 		movw	r3, #19950
 259 0030 9A42     		cmp	r2, r3
 260 0032 4BD0     		beq	.L30
 261              	.L18:
 255:Core/Src/stm32f4xx_it.c ****       HAL_I2C_Mem_Write(&hi2c1, bmp180_addr, 0xF4, 1, &cmd, 1, HAL_MAX_DELAY);
 256:Core/Src/stm32f4xx_it.c ****     }
ARM GAS  /tmp/ccbIBmss.s 			page 10


 257:Core/Src/stm32f4xx_it.c ****     if (SysTick_20Sec_Counter == TEMPERATURE_GET) {
 262              		.loc 1 257 5 is_stmt 1 view .LVU40
 263              		.loc 1 257 31 is_stmt 0 view .LVU41
 264 0034 894B     		ldr	r3, .L39+4
 265 0036 1A68     		ldr	r2, [r3]
 266              		.loc 1 257 8 view .LVU42
 267 0038 44F60163 		movw	r3, #19969
 268 003c 9A42     		cmp	r2, r3
 269 003e 53D0     		beq	.L31
 270              	.L19:
 258:Core/Src/stm32f4xx_it.c ****       temperature_result = bmp180_get_temperature();
 259:Core/Src/stm32f4xx_it.c ****     }
 260:Core/Src/stm32f4xx_it.c ****     if (SysTick_20Sec_Counter == PRESSURE_PUT) {
 271              		.loc 1 260 5 is_stmt 1 view .LVU43
 272              		.loc 1 260 31 is_stmt 0 view .LVU44
 273 0040 864B     		ldr	r3, .L39+4
 274 0042 1A68     		ldr	r2, [r3]
 275              		.loc 1 260 8 view .LVU45
 276 0044 44F60263 		movw	r3, #19970
 277 0048 9A42     		cmp	r2, r3
 278 004a 52D0     		beq	.L32
 279              	.L20:
 261:Core/Src/stm32f4xx_it.c ****       uint8_t pressure_cmd = 0x34 + (OSS << 6);
 262:Core/Src/stm32f4xx_it.c ****       HAL_I2C_Mem_Write(&hi2c1, bmp180_addr, 0xF4, 1, &pressure_cmd, sizeof(pressure_cmd), HAL_MAX_
 263:Core/Src/stm32f4xx_it.c ****     }
 264:Core/Src/stm32f4xx_it.c ****     if (SysTick_20Sec_Counter == PRESSURE_GET) {
 280              		.loc 1 264 5 is_stmt 1 view .LVU46
 281              		.loc 1 264 31 is_stmt 0 view .LVU47
 282 004c 834B     		ldr	r3, .L39+4
 283 004e 1A68     		ldr	r2, [r3]
 284              		.loc 1 264 8 view .LVU48
 285 0050 44F62063 		movw	r3, #20000
 286 0054 9A42     		cmp	r2, r3
 287 0056 5ED0     		beq	.L33
 288              	.L21:
 265:Core/Src/stm32f4xx_it.c ****       SysTick_20Sec_Counter = 0;
 266:Core/Src/stm32f4xx_it.c ****       pressure_result = bmp180_get_pressure() / 133.322f;
 267:Core/Src/stm32f4xx_it.c ****     }
 268:Core/Src/stm32f4xx_it.c ****     SysTick_20Sec_Counter++;
 289              		.loc 1 268 5 is_stmt 1 view .LVU49
 290              		.loc 1 268 26 is_stmt 0 view .LVU50
 291 0058 804A     		ldr	r2, .L39+4
 292 005a 1368     		ldr	r3, [r2]
 293 005c 0133     		adds	r3, r3, #1
 294 005e 1360     		str	r3, [r2]
 269:Core/Src/stm32f4xx_it.c ****     if (SysTick_1Sec_Counter_mode0 == 1000) {
 295              		.loc 1 269 5 is_stmt 1 view .LVU51
 296              		.loc 1 269 36 is_stmt 0 view .LVU52
 297 0060 7F4B     		ldr	r3, .L39+8
 298 0062 1B68     		ldr	r3, [r3]
 299              		.loc 1 269 8 view .LVU53
 300 0064 B3F57A7F 		cmp	r3, #1000
 301 0068 68D0     		beq	.L34
 302              	.L22:
 270:Core/Src/stm32f4xx_it.c ****       SysTick_1Sec_Counter_mode0 = 0;
 271:Core/Src/stm32f4xx_it.c ****       HAL_RTC_GetTime(&hrtc, &time, RTC_FORMAT_BIN);
 272:Core/Src/stm32f4xx_it.c ****       HAL_RTC_GetDate(&hrtc, &date, RTC_FORMAT_BIN);
ARM GAS  /tmp/ccbIBmss.s 			page 11


 273:Core/Src/stm32f4xx_it.c ****       lcd1602_transmit_command(0b10000000);
 274:Core/Src/stm32f4xx_it.c ****       snprintf(GLOBAL_MESSAGE_BUFFER, sizeof(GLOBAL_MESSAGE_BUFFER), "%02d:%02d:%02d", time.Hours, 
 275:Core/Src/stm32f4xx_it.c ****       lcd1602_send_string(GLOBAL_MESSAGE_BUFFER);
 276:Core/Src/stm32f4xx_it.c ****       lcd1602_transmit_command(0b11000000);
 277:Core/Src/stm32f4xx_it.c ****       snprintf(GLOBAL_MESSAGE_BUFFER, sizeof(GLOBAL_MESSAGE_BUFFER), "%.2ld, %.2ld, %.2f", pressure
 278:Core/Src/stm32f4xx_it.c ****       lcd1602_send_string(GLOBAL_MESSAGE_BUFFER);
 279:Core/Src/stm32f4xx_it.c ****     }
 280:Core/Src/stm32f4xx_it.c ****     SysTick_1Sec_Counter_mode0++;
 303              		.loc 1 280 5 is_stmt 1 view .LVU54
 304              		.loc 1 280 31 is_stmt 0 view .LVU55
 305 006a 7D4A     		ldr	r2, .L39+8
 306 006c 1368     		ldr	r3, [r2]
 307 006e 0133     		adds	r3, r3, #1
 308 0070 1360     		str	r3, [r2]
 309              	.L15:
 281:Core/Src/stm32f4xx_it.c ****   } 
 282:Core/Src/stm32f4xx_it.c ****   if (current_mode == 1) {
 310              		.loc 1 282 3 is_stmt 1 view .LVU56
 311              		.loc 1 282 20 is_stmt 0 view .LVU57
 312 0072 794B     		ldr	r3, .L39
 313 0074 1B68     		ldr	r3, [r3]
 314              		.loc 1 282 6 view .LVU58
 315 0076 012B     		cmp	r3, #1
 316 0078 00F0A680 		beq	.L35
 317              	.L23:
 283:Core/Src/stm32f4xx_it.c ****     if (SysTick_1Sec_Counter_mode1 == 1000) {
 284:Core/Src/stm32f4xx_it.c ****       SysTick_1Sec_Counter_mode1 = 0;
 285:Core/Src/stm32f4xx_it.c ****       lcd1602_transmit_command(0b00000001);
 286:Core/Src/stm32f4xx_it.c ****       lcd1602_transmit_command(0b10000000);
 287:Core/Src/stm32f4xx_it.c ****       HAL_RTC_GetTime(&hrtc, &time, RTC_FORMAT_BIN);
 288:Core/Src/stm32f4xx_it.c ****       snprintf(GLOBAL_MESSAGE_BUFFER, sizeof(GLOBAL_MESSAGE_BUFFER), "  %02d", time.Hours);
 289:Core/Src/stm32f4xx_it.c ****       lcd1602_send_string(GLOBAL_MESSAGE_BUFFER);
 290:Core/Src/stm32f4xx_it.c ****     }
 291:Core/Src/stm32f4xx_it.c ****     SysTick_1Sec_Counter_mode1++;
 292:Core/Src/stm32f4xx_it.c ****   }
 293:Core/Src/stm32f4xx_it.c ****   if (current_mode == 2) {
 318              		.loc 1 293 3 is_stmt 1 view .LVU59
 319              		.loc 1 293 20 is_stmt 0 view .LVU60
 320 007c 764B     		ldr	r3, .L39
 321 007e 1B68     		ldr	r3, [r3]
 322              		.loc 1 293 6 view .LVU61
 323 0080 022B     		cmp	r3, #2
 324 0082 00F0C580 		beq	.L36
 325              	.L14:
 294:Core/Src/stm32f4xx_it.c ****     if (SysTick_1Sec_Counter_mode2 == 1000) {
 295:Core/Src/stm32f4xx_it.c ****       SysTick_1Sec_Counter_mode2 = 0;
 296:Core/Src/stm32f4xx_it.c ****       lcd1602_transmit_command(0b00000001);
 297:Core/Src/stm32f4xx_it.c ****       lcd1602_transmit_command(0b10000000);
 298:Core/Src/stm32f4xx_it.c ****       HAL_RTC_GetTime(&hrtc, &time, RTC_FORMAT_BIN);
 299:Core/Src/stm32f4xx_it.c ****       snprintf(GLOBAL_MESSAGE_BUFFER, sizeof(GLOBAL_MESSAGE_BUFFER), "  %02d", time.Minutes);
 300:Core/Src/stm32f4xx_it.c ****       lcd1602_send_string(GLOBAL_MESSAGE_BUFFER);
 301:Core/Src/stm32f4xx_it.c ****     }
 302:Core/Src/stm32f4xx_it.c ****     SysTick_1Sec_Counter_mode2++;
 303:Core/Src/stm32f4xx_it.c ****   }
 304:Core/Src/stm32f4xx_it.c ****   /* USER CODE END SysTick_IRQn 1 */
 305:Core/Src/stm32f4xx_it.c **** }
 326              		.loc 1 305 1 view .LVU62
ARM GAS  /tmp/ccbIBmss.s 			page 12


 327 0086 06B0     		add	sp, sp, #24
 328              	.LCFI2:
 329              		.cfi_remember_state
 330              		.cfi_def_cfa_offset 16
 331              		@ sp needed
 332 0088 70BD     		pop	{r4, r5, r6, pc}
 333              	.L28:
 334              	.LCFI3:
 335              		.cfi_restore_state
 248:Core/Src/stm32f4xx_it.c ****     }
 336              		.loc 1 248 7 is_stmt 1 view .LVU63
 337 008a 4FF0FF33 		mov	r3, #-1
 338 008e 0093     		str	r3, [sp]
 339 0090 0323     		movs	r3, #3
 340 0092 744A     		ldr	r2, .L39+12
 341 0094 7449     		ldr	r1, .L39+16
 342 0096 0988     		ldrh	r1, [r1]
 343 0098 7448     		ldr	r0, .L39+20
 344 009a FFF7FEFF 		bl	HAL_I2C_Master_Transmit
 345              	.LVL1:
 346 009e BDE7     		b	.L16
 347              	.L29:
 251:Core/Src/stm32f4xx_it.c ****       AHT10_ADC_Raw = ((uint32_t)AHT10_RX_Data[1] << 12) | ((uint32_t)AHT10_RX_Data[2] << 4) | (AHT
 348              		.loc 1 251 7 view .LVU64
 349 00a0 734C     		ldr	r4, .L39+24
 350 00a2 4FF0FF33 		mov	r3, #-1
 351 00a6 0093     		str	r3, [sp]
 352 00a8 0623     		movs	r3, #6
 353 00aa 2246     		mov	r2, r4
 354 00ac 6E49     		ldr	r1, .L39+16
 355 00ae 0988     		ldrh	r1, [r1]
 356 00b0 6E48     		ldr	r0, .L39+20
 357 00b2 FFF7FEFF 		bl	HAL_I2C_Master_Receive
 358              	.LVL2:
 252:Core/Src/stm32f4xx_it.c ****     }
 359              		.loc 1 252 7 view .LVU65
 252:Core/Src/stm32f4xx_it.c ****     }
 360              		.loc 1 252 47 is_stmt 0 view .LVU66
 361 00b6 6278     		ldrb	r2, [r4, #1]	@ zero_extendqisi2
 252:Core/Src/stm32f4xx_it.c ****     }
 362              		.loc 1 252 84 view .LVU67
 363 00b8 A378     		ldrb	r3, [r4, #2]	@ zero_extendqisi2
 252:Core/Src/stm32f4xx_it.c ****     }
 364              		.loc 1 252 88 view .LVU68
 365 00ba 1B01     		lsls	r3, r3, #4
 252:Core/Src/stm32f4xx_it.c ****     }
 366              		.loc 1 252 58 view .LVU69
 367 00bc 43EA0233 		orr	r3, r3, r2, lsl #12
 252:Core/Src/stm32f4xx_it.c ****     }
 368              		.loc 1 252 110 view .LVU70
 369 00c0 E278     		ldrb	r2, [r4, #3]	@ zero_extendqisi2
 252:Core/Src/stm32f4xx_it.c ****     }
 370              		.loc 1 252 94 view .LVU71
 371 00c2 43EA1213 		orr	r3, r3, r2, lsr #4
 252:Core/Src/stm32f4xx_it.c ****     }
 372              		.loc 1 252 21 view .LVU72
 373 00c6 6B4A     		ldr	r2, .L39+28
ARM GAS  /tmp/ccbIBmss.s 			page 13


 374 00c8 1360     		str	r3, [r2]
 375 00ca ADE7     		b	.L17
 376              	.L30:
 255:Core/Src/stm32f4xx_it.c ****     }
 377              		.loc 1 255 7 is_stmt 1 view .LVU73
 378 00cc 4FF0FF33 		mov	r3, #-1
 379 00d0 0293     		str	r3, [sp, #8]
 380 00d2 0123     		movs	r3, #1
 381 00d4 0193     		str	r3, [sp, #4]
 382 00d6 684A     		ldr	r2, .L39+32
 383 00d8 0092     		str	r2, [sp]
 384 00da F422     		movs	r2, #244
 385 00dc 6749     		ldr	r1, .L39+36
 386 00de 0988     		ldrh	r1, [r1]
 387 00e0 6248     		ldr	r0, .L39+20
 388 00e2 FFF7FEFF 		bl	HAL_I2C_Mem_Write
 389              	.LVL3:
 390 00e6 A5E7     		b	.L18
 391              	.L31:
 258:Core/Src/stm32f4xx_it.c ****     }
 392              		.loc 1 258 7 view .LVU74
 258:Core/Src/stm32f4xx_it.c ****     }
 393              		.loc 1 258 28 is_stmt 0 view .LVU75
 394 00e8 FFF7FEFF 		bl	bmp180_get_temperature
 395              	.LVL4:
 258:Core/Src/stm32f4xx_it.c ****     }
 396              		.loc 1 258 26 discriminator 1 view .LVU76
 397 00ec 644B     		ldr	r3, .L39+40
 398 00ee 1860     		str	r0, [r3]
 399 00f0 A6E7     		b	.L19
 400              	.L32:
 401              	.LBB2:
 261:Core/Src/stm32f4xx_it.c ****       HAL_I2C_Mem_Write(&hi2c1, bmp180_addr, 0xF4, 1, &pressure_cmd, sizeof(pressure_cmd), HAL_MAX_
 402              		.loc 1 261 7 is_stmt 1 view .LVU77
 261:Core/Src/stm32f4xx_it.c ****       HAL_I2C_Mem_Write(&hi2c1, bmp180_addr, 0xF4, 1, &pressure_cmd, sizeof(pressure_cmd), HAL_MAX_
 403              		.loc 1 261 15 is_stmt 0 view .LVU78
 404 00f2 3423     		movs	r3, #52
 405 00f4 8DF81730 		strb	r3, [sp, #23]
 262:Core/Src/stm32f4xx_it.c ****     }
 406              		.loc 1 262 7 is_stmt 1 view .LVU79
 407 00f8 4FF0FF33 		mov	r3, #-1
 408 00fc 0293     		str	r3, [sp, #8]
 409 00fe 0123     		movs	r3, #1
 410 0100 0193     		str	r3, [sp, #4]
 411 0102 0DF11702 		add	r2, sp, #23
 412 0106 0092     		str	r2, [sp]
 413 0108 F422     		movs	r2, #244
 414 010a 5C49     		ldr	r1, .L39+36
 415 010c 0988     		ldrh	r1, [r1]
 416 010e 5748     		ldr	r0, .L39+20
 417 0110 FFF7FEFF 		bl	HAL_I2C_Mem_Write
 418              	.LVL5:
 419 0114 9AE7     		b	.L20
 420              	.L33:
 421              	.LBE2:
 265:Core/Src/stm32f4xx_it.c ****       pressure_result = bmp180_get_pressure() / 133.322f;
 422              		.loc 1 265 7 view .LVU80
ARM GAS  /tmp/ccbIBmss.s 			page 14


 265:Core/Src/stm32f4xx_it.c ****       pressure_result = bmp180_get_pressure() / 133.322f;
 423              		.loc 1 265 29 is_stmt 0 view .LVU81
 424 0116 514B     		ldr	r3, .L39+4
 425 0118 0022     		movs	r2, #0
 426 011a 1A60     		str	r2, [r3]
 266:Core/Src/stm32f4xx_it.c ****     }
 427              		.loc 1 266 7 is_stmt 1 view .LVU82
 266:Core/Src/stm32f4xx_it.c ****     }
 428              		.loc 1 266 25 is_stmt 0 view .LVU83
 429 011c FFF7FEFF 		bl	bmp180_get_pressure
 430              	.LVL6:
 431 0120 07EE100A 		vmov	s14, r0	@ int
 266:Core/Src/stm32f4xx_it.c ****     }
 432              		.loc 1 266 47 discriminator 1 view .LVU84
 433 0124 B8EEC77A 		vcvt.f32.s32	s14, s14
 434 0128 DFED566A 		vldr.32	s13, .L39+44
 435 012c C7EE267A 		vdiv.f32	s15, s14, s13
 266:Core/Src/stm32f4xx_it.c ****     }
 436              		.loc 1 266 23 discriminator 1 view .LVU85
 437 0130 FDEEE77A 		vcvt.s32.f32	s15, s15
 438 0134 544B     		ldr	r3, .L39+48
 439 0136 C3ED007A 		vstr.32	s15, [r3]	@ int
 440 013a 8DE7     		b	.L21
 441              	.L34:
 270:Core/Src/stm32f4xx_it.c ****       HAL_RTC_GetTime(&hrtc, &time, RTC_FORMAT_BIN);
 442              		.loc 1 270 7 is_stmt 1 view .LVU86
 270:Core/Src/stm32f4xx_it.c ****       HAL_RTC_GetTime(&hrtc, &time, RTC_FORMAT_BIN);
 443              		.loc 1 270 34 is_stmt 0 view .LVU87
 444 013c 0024     		movs	r4, #0
 445 013e 484B     		ldr	r3, .L39+8
 446 0140 1C60     		str	r4, [r3]
 271:Core/Src/stm32f4xx_it.c ****       HAL_RTC_GetDate(&hrtc, &date, RTC_FORMAT_BIN);
 447              		.loc 1 271 7 is_stmt 1 view .LVU88
 448 0142 524D     		ldr	r5, .L39+52
 449 0144 524E     		ldr	r6, .L39+56
 450 0146 2246     		mov	r2, r4
 451 0148 2946     		mov	r1, r5
 452 014a 3046     		mov	r0, r6
 453 014c FFF7FEFF 		bl	HAL_RTC_GetTime
 454              	.LVL7:
 272:Core/Src/stm32f4xx_it.c ****       lcd1602_transmit_command(0b10000000);
 455              		.loc 1 272 7 view .LVU89
 456 0150 2246     		mov	r2, r4
 457 0152 5049     		ldr	r1, .L39+60
 458 0154 3046     		mov	r0, r6
 459 0156 FFF7FEFF 		bl	HAL_RTC_GetDate
 460              	.LVL8:
 273:Core/Src/stm32f4xx_it.c ****       snprintf(GLOBAL_MESSAGE_BUFFER, sizeof(GLOBAL_MESSAGE_BUFFER), "%02d:%02d:%02d", time.Hours, 
 461              		.loc 1 273 7 view .LVU90
 462 015a 8020     		movs	r0, #128
 463 015c FFF7FEFF 		bl	lcd1602_transmit_command
 464              	.LVL9:
 274:Core/Src/stm32f4xx_it.c ****       lcd1602_send_string(GLOBAL_MESSAGE_BUFFER);
 465              		.loc 1 274 7 view .LVU91
 274:Core/Src/stm32f4xx_it.c ****       lcd1602_send_string(GLOBAL_MESSAGE_BUFFER);
 466              		.loc 1 274 104 is_stmt 0 view .LVU92
 467 0160 6B78     		ldrb	r3, [r5, #1]	@ zero_extendqisi2
ARM GAS  /tmp/ccbIBmss.s 			page 15


 274:Core/Src/stm32f4xx_it.c ****       lcd1602_send_string(GLOBAL_MESSAGE_BUFFER);
 468              		.loc 1 274 118 view .LVU93
 469 0162 AA78     		ldrb	r2, [r5, #2]	@ zero_extendqisi2
 274:Core/Src/stm32f4xx_it.c ****       lcd1602_send_string(GLOBAL_MESSAGE_BUFFER);
 470              		.loc 1 274 7 view .LVU94
 471 0164 4C4C     		ldr	r4, .L39+64
 472 0166 0192     		str	r2, [sp, #4]
 473 0168 0093     		str	r3, [sp]
 474 016a 2B78     		ldrb	r3, [r5]	@ zero_extendqisi2
 475 016c 4B4A     		ldr	r2, .L39+68
 476 016e 1E21     		movs	r1, #30
 477 0170 2046     		mov	r0, r4
 478 0172 FFF7FEFF 		bl	snprintf
 479              	.LVL10:
 275:Core/Src/stm32f4xx_it.c ****       lcd1602_transmit_command(0b11000000);
 480              		.loc 1 275 7 is_stmt 1 view .LVU95
 481 0176 2046     		mov	r0, r4
 482 0178 FFF7FEFF 		bl	lcd1602_send_string
 483              	.LVL11:
 276:Core/Src/stm32f4xx_it.c ****       snprintf(GLOBAL_MESSAGE_BUFFER, sizeof(GLOBAL_MESSAGE_BUFFER), "%.2ld, %.2ld, %.2f", pressure
 484              		.loc 1 276 7 view .LVU96
 485 017c C020     		movs	r0, #192
 486 017e FFF7FEFF 		bl	lcd1602_transmit_command
 487              	.LVL12:
 277:Core/Src/stm32f4xx_it.c ****       lcd1602_send_string(GLOBAL_MESSAGE_BUFFER);
 488              		.loc 1 277 7 view .LVU97
 277:Core/Src/stm32f4xx_it.c ****       lcd1602_send_string(GLOBAL_MESSAGE_BUFFER);
 489              		.loc 1 277 130 is_stmt 0 view .LVU98
 490 0182 3C4B     		ldr	r3, .L39+28
 491 0184 1868     		ldr	r0, [r3]
 492 0186 07EE900A 		vmov	s15, r0	@ int
 493 018a F8EE677A 		vcvt.f32.u32	s15, s15
 494 018e 17EE900A 		vmov	r0, s15
 495 0192 FFF7FEFF 		bl	__aeabi_f2d
 496              	.LVL13:
 277:Core/Src/stm32f4xx_it.c ****       lcd1602_send_string(GLOBAL_MESSAGE_BUFFER);
 497              		.loc 1 277 151 view .LVU99
 498 0196 0022     		movs	r2, #0
 499 0198 414B     		ldr	r3, .L39+72
 500 019a FFF7FEFF 		bl	__aeabi_dmul
 501              	.LVL14:
 277:Core/Src/stm32f4xx_it.c ****       lcd1602_send_string(GLOBAL_MESSAGE_BUFFER);
 502              		.loc 1 277 7 view .LVU100
 503 019e 3A4B     		ldr	r3, .L39+48
 504 01a0 1D68     		ldr	r5, [r3]
 505 01a2 0022     		movs	r2, #0
 506 01a4 3F4B     		ldr	r3, .L39+76
 507 01a6 FFF7FEFF 		bl	__aeabi_dmul
 508              	.LVL15:
 509 01aa CDE90201 		strd	r0, [sp, #8]
 510 01ae 344B     		ldr	r3, .L39+40
 511 01b0 1B68     		ldr	r3, [r3]
 512 01b2 0093     		str	r3, [sp]
 513 01b4 2B46     		mov	r3, r5
 514 01b6 3C4A     		ldr	r2, .L39+80
 515 01b8 1E21     		movs	r1, #30
 516 01ba 2046     		mov	r0, r4
ARM GAS  /tmp/ccbIBmss.s 			page 16


 517 01bc FFF7FEFF 		bl	snprintf
 518              	.LVL16:
 278:Core/Src/stm32f4xx_it.c ****     }
 519              		.loc 1 278 7 is_stmt 1 view .LVU101
 520 01c0 2046     		mov	r0, r4
 521 01c2 FFF7FEFF 		bl	lcd1602_send_string
 522              	.LVL17:
 523 01c6 50E7     		b	.L22
 524              	.L35:
 283:Core/Src/stm32f4xx_it.c ****       SysTick_1Sec_Counter_mode1 = 0;
 525              		.loc 1 283 5 view .LVU102
 283:Core/Src/stm32f4xx_it.c ****       SysTick_1Sec_Counter_mode1 = 0;
 526              		.loc 1 283 36 is_stmt 0 view .LVU103
 527 01c8 384B     		ldr	r3, .L39+84
 528 01ca 1B68     		ldr	r3, [r3]
 283:Core/Src/stm32f4xx_it.c ****       SysTick_1Sec_Counter_mode1 = 0;
 529              		.loc 1 283 8 view .LVU104
 530 01cc B3F57A7F 		cmp	r3, #1000
 531 01d0 04D0     		beq	.L37
 532              	.L24:
 291:Core/Src/stm32f4xx_it.c ****   }
 533              		.loc 1 291 5 is_stmt 1 view .LVU105
 291:Core/Src/stm32f4xx_it.c ****   }
 534              		.loc 1 291 31 is_stmt 0 view .LVU106
 535 01d2 364A     		ldr	r2, .L39+84
 536 01d4 1368     		ldr	r3, [r2]
 537 01d6 0133     		adds	r3, r3, #1
 538 01d8 1360     		str	r3, [r2]
 539 01da 4FE7     		b	.L23
 540              	.L37:
 284:Core/Src/stm32f4xx_it.c ****       lcd1602_transmit_command(0b00000001);
 541              		.loc 1 284 7 is_stmt 1 view .LVU107
 284:Core/Src/stm32f4xx_it.c ****       lcd1602_transmit_command(0b00000001);
 542              		.loc 1 284 34 is_stmt 0 view .LVU108
 543 01dc 0024     		movs	r4, #0
 544 01de 334B     		ldr	r3, .L39+84
 545 01e0 1C60     		str	r4, [r3]
 285:Core/Src/stm32f4xx_it.c ****       lcd1602_transmit_command(0b10000000);
 546              		.loc 1 285 7 is_stmt 1 view .LVU109
 547 01e2 0120     		movs	r0, #1
 548 01e4 FFF7FEFF 		bl	lcd1602_transmit_command
 549              	.LVL18:
 286:Core/Src/stm32f4xx_it.c ****       HAL_RTC_GetTime(&hrtc, &time, RTC_FORMAT_BIN);
 550              		.loc 1 286 7 view .LVU110
 551 01e8 8020     		movs	r0, #128
 552 01ea FFF7FEFF 		bl	lcd1602_transmit_command
 553              	.LVL19:
 287:Core/Src/stm32f4xx_it.c ****       snprintf(GLOBAL_MESSAGE_BUFFER, sizeof(GLOBAL_MESSAGE_BUFFER), "  %02d", time.Hours);
 554              		.loc 1 287 7 view .LVU111
 555 01ee 274D     		ldr	r5, .L39+52
 556 01f0 2246     		mov	r2, r4
 557 01f2 2946     		mov	r1, r5
 558 01f4 2648     		ldr	r0, .L39+56
 559 01f6 FFF7FEFF 		bl	HAL_RTC_GetTime
 560              	.LVL20:
 288:Core/Src/stm32f4xx_it.c ****       lcd1602_send_string(GLOBAL_MESSAGE_BUFFER);
 561              		.loc 1 288 7 view .LVU112
ARM GAS  /tmp/ccbIBmss.s 			page 17


 562 01fa 274C     		ldr	r4, .L39+64
 563 01fc 2B78     		ldrb	r3, [r5]	@ zero_extendqisi2
 564 01fe 2C4A     		ldr	r2, .L39+88
 565 0200 1E21     		movs	r1, #30
 566 0202 2046     		mov	r0, r4
 567 0204 FFF7FEFF 		bl	snprintf
 568              	.LVL21:
 289:Core/Src/stm32f4xx_it.c ****     }
 569              		.loc 1 289 7 view .LVU113
 570 0208 2046     		mov	r0, r4
 571 020a FFF7FEFF 		bl	lcd1602_send_string
 572              	.LVL22:
 573 020e E0E7     		b	.L24
 574              	.L36:
 294:Core/Src/stm32f4xx_it.c ****       SysTick_1Sec_Counter_mode2 = 0;
 575              		.loc 1 294 5 view .LVU114
 294:Core/Src/stm32f4xx_it.c ****       SysTick_1Sec_Counter_mode2 = 0;
 576              		.loc 1 294 36 is_stmt 0 view .LVU115
 577 0210 284B     		ldr	r3, .L39+92
 578 0212 1B68     		ldr	r3, [r3]
 294:Core/Src/stm32f4xx_it.c ****       SysTick_1Sec_Counter_mode2 = 0;
 579              		.loc 1 294 8 view .LVU116
 580 0214 B3F57A7F 		cmp	r3, #1000
 581 0218 04D0     		beq	.L38
 582              	.L26:
 302:Core/Src/stm32f4xx_it.c ****   }
 583              		.loc 1 302 5 is_stmt 1 view .LVU117
 302:Core/Src/stm32f4xx_it.c ****   }
 584              		.loc 1 302 31 is_stmt 0 view .LVU118
 585 021a 264A     		ldr	r2, .L39+92
 586 021c 1368     		ldr	r3, [r2]
 587 021e 0133     		adds	r3, r3, #1
 588 0220 1360     		str	r3, [r2]
 589              		.loc 1 305 1 view .LVU119
 590 0222 30E7     		b	.L14
 591              	.L38:
 295:Core/Src/stm32f4xx_it.c ****       lcd1602_transmit_command(0b00000001);
 592              		.loc 1 295 7 is_stmt 1 view .LVU120
 295:Core/Src/stm32f4xx_it.c ****       lcd1602_transmit_command(0b00000001);
 593              		.loc 1 295 34 is_stmt 0 view .LVU121
 594 0224 0024     		movs	r4, #0
 595 0226 234B     		ldr	r3, .L39+92
 596 0228 1C60     		str	r4, [r3]
 296:Core/Src/stm32f4xx_it.c ****       lcd1602_transmit_command(0b10000000);
 597              		.loc 1 296 7 is_stmt 1 view .LVU122
 598 022a 0120     		movs	r0, #1
 599 022c FFF7FEFF 		bl	lcd1602_transmit_command
 600              	.LVL23:
 297:Core/Src/stm32f4xx_it.c ****       HAL_RTC_GetTime(&hrtc, &time, RTC_FORMAT_BIN);
 601              		.loc 1 297 7 view .LVU123
 602 0230 8020     		movs	r0, #128
 603 0232 FFF7FEFF 		bl	lcd1602_transmit_command
 604              	.LVL24:
 298:Core/Src/stm32f4xx_it.c ****       snprintf(GLOBAL_MESSAGE_BUFFER, sizeof(GLOBAL_MESSAGE_BUFFER), "  %02d", time.Minutes);
 605              		.loc 1 298 7 view .LVU124
 606 0236 154D     		ldr	r5, .L39+52
 607 0238 2246     		mov	r2, r4
ARM GAS  /tmp/ccbIBmss.s 			page 18


 608 023a 2946     		mov	r1, r5
 609 023c 1448     		ldr	r0, .L39+56
 610 023e FFF7FEFF 		bl	HAL_RTC_GetTime
 611              	.LVL25:
 299:Core/Src/stm32f4xx_it.c ****       lcd1602_send_string(GLOBAL_MESSAGE_BUFFER);
 612              		.loc 1 299 7 view .LVU125
 613 0242 154C     		ldr	r4, .L39+64
 614 0244 6B78     		ldrb	r3, [r5, #1]	@ zero_extendqisi2
 615 0246 1A4A     		ldr	r2, .L39+88
 616 0248 1E21     		movs	r1, #30
 617 024a 2046     		mov	r0, r4
 618 024c FFF7FEFF 		bl	snprintf
 619              	.LVL26:
 300:Core/Src/stm32f4xx_it.c ****     }
 620              		.loc 1 300 7 view .LVU126
 621 0250 2046     		mov	r0, r4
 622 0252 FFF7FEFF 		bl	lcd1602_send_string
 623              	.LVL27:
 624 0256 E0E7     		b	.L26
 625              	.L40:
 626              		.align	2
 627              	.L39:
 628 0258 00000000 		.word	current_mode
 629 025c 00000000 		.word	SysTick_20Sec_Counter
 630 0260 00000000 		.word	SysTick_1Sec_Counter_mode0
 631 0264 00000000 		.word	aht10_measurement_command
 632 0268 00000000 		.word	aht10_addr
 633 026c 00000000 		.word	hi2c1
 634 0270 00000000 		.word	AHT10_RX_Data
 635 0274 00000000 		.word	AHT10_ADC_Raw
 636 0278 00000000 		.word	cmd
 637 027c 00000000 		.word	bmp180_addr
 638 0280 00000000 		.word	temperature_result
 639 0284 6F520543 		.word	1124422255
 640 0288 00000000 		.word	pressure_result
 641 028c 00000000 		.word	time
 642 0290 00000000 		.word	hrtc
 643 0294 00000000 		.word	date
 644 0298 00000000 		.word	GLOBAL_MESSAGE_BUFFER
 645 029c 00000000 		.word	.LC0
 646 02a0 0000B03E 		.word	1051721728
 647 02a4 00005940 		.word	1079574528
 648 02a8 10000000 		.word	.LC1
 649 02ac 00000000 		.word	SysTick_1Sec_Counter_mode1
 650 02b0 24000000 		.word	.LC2
 651 02b4 00000000 		.word	SysTick_1Sec_Counter_mode2
 652              		.cfi_endproc
 653              	.LFE145:
 655              		.section	.text.EXTI15_10_IRQHandler,"ax",%progbits
 656              		.align	1
 657              		.global	EXTI15_10_IRQHandler
 658              		.syntax unified
 659              		.thumb
 660              		.thumb_func
 662              	EXTI15_10_IRQHandler:
 663              	.LFB146:
 306:Core/Src/stm32f4xx_it.c **** 
ARM GAS  /tmp/ccbIBmss.s 			page 19


 307:Core/Src/stm32f4xx_it.c **** /******************************************************************************/
 308:Core/Src/stm32f4xx_it.c **** /* STM32F4xx Peripheral Interrupt Handlers                                    */
 309:Core/Src/stm32f4xx_it.c **** /* Add here the Interrupt Handlers for the used peripherals.                  */
 310:Core/Src/stm32f4xx_it.c **** /* For the available peripheral interrupt handler names,                      */
 311:Core/Src/stm32f4xx_it.c **** /* please refer to the startup file (startup_stm32f4xx.s).                    */
 312:Core/Src/stm32f4xx_it.c **** /******************************************************************************/
 313:Core/Src/stm32f4xx_it.c **** 
 314:Core/Src/stm32f4xx_it.c **** /**
 315:Core/Src/stm32f4xx_it.c ****   * @brief This function handles EXTI line[15:10] interrupts.
 316:Core/Src/stm32f4xx_it.c ****   */
 317:Core/Src/stm32f4xx_it.c **** void EXTI15_10_IRQHandler(void)
 318:Core/Src/stm32f4xx_it.c **** {
 664              		.loc 1 318 1 view -0
 665              		.cfi_startproc
 666              		@ args = 0, pretend = 0, frame = 0
 667              		@ frame_needed = 0, uses_anonymous_args = 0
 668 0000 08B5     		push	{r3, lr}
 669              	.LCFI4:
 670              		.cfi_def_cfa_offset 8
 671              		.cfi_offset 3, -8
 672              		.cfi_offset 14, -4
 319:Core/Src/stm32f4xx_it.c ****   /* USER CODE BEGIN EXTI15_10_IRQn 0 */
 320:Core/Src/stm32f4xx_it.c **** 
 321:Core/Src/stm32f4xx_it.c ****   /* USER CODE END EXTI15_10_IRQn 0 */
 322:Core/Src/stm32f4xx_it.c ****   HAL_GPIO_EXTI_IRQHandler(GPIO_PIN_13);
 673              		.loc 1 322 3 view .LVU128
 674 0002 4FF40050 		mov	r0, #8192
 675 0006 FFF7FEFF 		bl	HAL_GPIO_EXTI_IRQHandler
 676              	.LVL28:
 323:Core/Src/stm32f4xx_it.c ****   /* USER CODE BEGIN EXTI15_10_IRQn 1 */
 324:Core/Src/stm32f4xx_it.c ****   current_mode++;
 677              		.loc 1 324 3 view .LVU129
 678              		.loc 1 324 15 is_stmt 0 view .LVU130
 679 000a 054A     		ldr	r2, .L44
 680 000c 1368     		ldr	r3, [r2]
 681 000e 0133     		adds	r3, r3, #1
 682 0010 1360     		str	r3, [r2]
 325:Core/Src/stm32f4xx_it.c ****   if (current_mode > 2) {
 683              		.loc 1 325 3 is_stmt 1 view .LVU131
 684              		.loc 1 325 6 is_stmt 0 view .LVU132
 685 0012 022B     		cmp	r3, #2
 686 0014 02D9     		bls	.L41
 326:Core/Src/stm32f4xx_it.c ****     current_mode = 0;
 687              		.loc 1 326 5 is_stmt 1 view .LVU133
 688              		.loc 1 326 18 is_stmt 0 view .LVU134
 689 0016 1346     		mov	r3, r2
 690 0018 0022     		movs	r2, #0
 691 001a 1A60     		str	r2, [r3]
 692              	.L41:
 327:Core/Src/stm32f4xx_it.c ****   }
 328:Core/Src/stm32f4xx_it.c ****   /* USER CODE END EXTI15_10_IRQn 1 */
 329:Core/Src/stm32f4xx_it.c **** }
 693              		.loc 1 329 1 view .LVU135
 694 001c 08BD     		pop	{r3, pc}
 695              	.L45:
 696 001e 00BF     		.align	2
 697              	.L44:
ARM GAS  /tmp/ccbIBmss.s 			page 20


 698 0020 00000000 		.word	current_mode
 699              		.cfi_endproc
 700              	.LFE146:
 702              		.section	.bss.current_mode,"aw",%nobits
 703              		.align	2
 706              	current_mode:
 707 0000 00000000 		.space	4
 708              		.global	pressure_result
 709              		.section	.bss.pressure_result,"aw",%nobits
 710              		.align	2
 713              	pressure_result:
 714 0000 00000000 		.space	4
 715              		.global	temperature_result
 716              		.section	.bss.temperature_result,"aw",%nobits
 717              		.align	2
 720              	temperature_result:
 721 0000 00000000 		.space	4
 722              		.global	current_state_is_write
 723              		.section	.bss.current_state_is_write,"aw",%nobits
 726              	current_state_is_write:
 727 0000 00       		.space	1
 728              		.global	message_count
 729              		.section	.bss.message_count,"aw",%nobits
 730              		.align	2
 733              	message_count:
 734 0000 00000000 		.space	32
 734      00000000 
 734      00000000 
 734      00000000 
 734      00000000 
 735              		.section	.bss.SysTick_1Sec_Counter_mode2,"aw",%nobits
 736              		.align	2
 739              	SysTick_1Sec_Counter_mode2:
 740 0000 00000000 		.space	4
 741              		.section	.bss.SysTick_1Sec_Counter_mode1,"aw",%nobits
 742              		.align	2
 745              	SysTick_1Sec_Counter_mode1:
 746 0000 00000000 		.space	4
 747              		.section	.bss.SysTick_1Sec_Counter_mode0,"aw",%nobits
 748              		.align	2
 751              	SysTick_1Sec_Counter_mode0:
 752 0000 00000000 		.space	4
 753              		.section	.bss.SysTick_20Sec_Counter,"aw",%nobits
 754              		.align	2
 757              	SysTick_20Sec_Counter:
 758 0000 00000000 		.space	4
 759              		.text
 760              	.Letext0:
 761              		.file 2 "/home/mike/bin/arm-gnu-toolchain-14.3.rel1-x86_64-arm-none-eabi/arm-none-eabi/include/mac
 762              		.file 3 "/home/mike/bin/arm-gnu-toolchain-14.3.rel1-x86_64-arm-none-eabi/arm-none-eabi/include/sys
 763              		.file 4 "Drivers/CMSIS/Device/ST/STM32F4xx/Include/stm32f401xe.h"
 764              		.file 5 "Drivers/STM32F4xx_HAL_Driver/Inc/stm32f4xx_hal_def.h"
 765              		.file 6 "Drivers/STM32F4xx_HAL_Driver/Inc/stm32f4xx_hal_dma.h"
 766              		.file 7 "Drivers/STM32F4xx_HAL_Driver/Inc/stm32f4xx_hal_i2c.h"
 767              		.file 8 "Drivers/STM32F4xx_HAL_Driver/Inc/stm32f4xx_hal_rtc.h"
 768              		.file 9 "Core/Src/transmit_and_recieve_control/transmit_and_recieve_control.h"
 769              		.file 10 "Drivers/STM32F4xx_HAL_Driver/Inc/stm32f4xx_hal_gpio.h"
ARM GAS  /tmp/ccbIBmss.s 			page 21


 770              		.file 11 "/home/mike/bin/arm-gnu-toolchain-14.3.rel1-x86_64-arm-none-eabi/arm-none-eabi/include/st
 771              		.file 12 "Drivers/STM32F4xx_HAL_Driver/Inc/stm32f4xx_hal.h"
ARM GAS  /tmp/ccbIBmss.s 			page 22


DEFINED SYMBOLS
                            *ABS*:00000000 stm32f4xx_it.c
     /tmp/ccbIBmss.s:21     .text.NMI_Handler:00000000 $t
     /tmp/ccbIBmss.s:27     .text.NMI_Handler:00000000 NMI_Handler
     /tmp/ccbIBmss.s:44     .text.HardFault_Handler:00000000 $t
     /tmp/ccbIBmss.s:50     .text.HardFault_Handler:00000000 HardFault_Handler
     /tmp/ccbIBmss.s:67     .text.MemManage_Handler:00000000 $t
     /tmp/ccbIBmss.s:73     .text.MemManage_Handler:00000000 MemManage_Handler
     /tmp/ccbIBmss.s:90     .text.BusFault_Handler:00000000 $t
     /tmp/ccbIBmss.s:96     .text.BusFault_Handler:00000000 BusFault_Handler
     /tmp/ccbIBmss.s:113    .text.UsageFault_Handler:00000000 $t
     /tmp/ccbIBmss.s:119    .text.UsageFault_Handler:00000000 UsageFault_Handler
     /tmp/ccbIBmss.s:136    .text.SVC_Handler:00000000 $t
     /tmp/ccbIBmss.s:142    .text.SVC_Handler:00000000 SVC_Handler
     /tmp/ccbIBmss.s:155    .text.DebugMon_Handler:00000000 $t
     /tmp/ccbIBmss.s:161    .text.DebugMon_Handler:00000000 DebugMon_Handler
     /tmp/ccbIBmss.s:174    .text.PendSV_Handler:00000000 $t
     /tmp/ccbIBmss.s:180    .text.PendSV_Handler:00000000 PendSV_Handler
     /tmp/ccbIBmss.s:193    .rodata.SysTick_Handler.str1.4:00000000 $d
     /tmp/ccbIBmss.s:203    .text.SysTick_Handler:00000000 $t
     /tmp/ccbIBmss.s:209    .text.SysTick_Handler:00000000 SysTick_Handler
     /tmp/ccbIBmss.s:628    .text.SysTick_Handler:00000258 $d
     /tmp/ccbIBmss.s:706    .bss.current_mode:00000000 current_mode
     /tmp/ccbIBmss.s:757    .bss.SysTick_20Sec_Counter:00000000 SysTick_20Sec_Counter
     /tmp/ccbIBmss.s:751    .bss.SysTick_1Sec_Counter_mode0:00000000 SysTick_1Sec_Counter_mode0
     /tmp/ccbIBmss.s:720    .bss.temperature_result:00000000 temperature_result
     /tmp/ccbIBmss.s:713    .bss.pressure_result:00000000 pressure_result
     /tmp/ccbIBmss.s:745    .bss.SysTick_1Sec_Counter_mode1:00000000 SysTick_1Sec_Counter_mode1
     /tmp/ccbIBmss.s:739    .bss.SysTick_1Sec_Counter_mode2:00000000 SysTick_1Sec_Counter_mode2
     /tmp/ccbIBmss.s:656    .text.EXTI15_10_IRQHandler:00000000 $t
     /tmp/ccbIBmss.s:662    .text.EXTI15_10_IRQHandler:00000000 EXTI15_10_IRQHandler
     /tmp/ccbIBmss.s:698    .text.EXTI15_10_IRQHandler:00000020 $d
     /tmp/ccbIBmss.s:703    .bss.current_mode:00000000 $d
     /tmp/ccbIBmss.s:710    .bss.pressure_result:00000000 $d
     /tmp/ccbIBmss.s:717    .bss.temperature_result:00000000 $d
     /tmp/ccbIBmss.s:726    .bss.current_state_is_write:00000000 current_state_is_write
     /tmp/ccbIBmss.s:727    .bss.current_state_is_write:00000000 $d
     /tmp/ccbIBmss.s:733    .bss.message_count:00000000 message_count
     /tmp/ccbIBmss.s:730    .bss.message_count:00000000 $d
     /tmp/ccbIBmss.s:736    .bss.SysTick_1Sec_Counter_mode2:00000000 $d
     /tmp/ccbIBmss.s:742    .bss.SysTick_1Sec_Counter_mode1:00000000 $d
     /tmp/ccbIBmss.s:748    .bss.SysTick_1Sec_Counter_mode0:00000000 $d
     /tmp/ccbIBmss.s:754    .bss.SysTick_20Sec_Counter:00000000 $d

UNDEFINED SYMBOLS
HAL_IncTick
HAL_I2C_Master_Transmit
HAL_I2C_Master_Receive
HAL_I2C_Mem_Write
bmp180_get_temperature
bmp180_get_pressure
HAL_RTC_GetTime
HAL_RTC_GetDate
lcd1602_transmit_command
snprintf
lcd1602_send_string
__aeabi_f2d
ARM GAS  /tmp/ccbIBmss.s 			page 23


__aeabi_dmul
aht10_measurement_command
aht10_addr
hi2c1
AHT10_RX_Data
AHT10_ADC_Raw
cmd
bmp180_addr
time
hrtc
date
GLOBAL_MESSAGE_BUFFER
HAL_GPIO_EXTI_IRQHandler
