ARM GAS  /tmp/ccuiy2cl.s 			page 1


   1              		.cpu cortex-m4
   2              		.arch armv7e-m
   3              		.fpu fpv4-sp-d16
   4              		.eabi_attribute 27, 1
   5              		.eabi_attribute 28, 1
   6              		.eabi_attribute 20, 1
   7              		.eabi_attribute 21, 1
   8              		.eabi_attribute 23, 3
   9              		.eabi_attribute 24, 1
  10              		.eabi_attribute 25, 1
  11              		.eabi_attribute 26, 1
  12              		.eabi_attribute 30, 1
  13              		.eabi_attribute 34, 1
  14              		.eabi_attribute 18, 4
  15              		.file	"transmit_and_recieve_control.c"
  16              		.text
  17              	.Ltext0:
  18              		.cfi_sections	.debug_frame
  19              		.file 1 "Core/Src/transmit_and_recieve_control/transmit_and_recieve_control.c"
  20              		.section	.text.lcd1602_transmit,"ax",%progbits
  21              		.align	1
  22              		.global	lcd1602_transmit
  23              		.syntax unified
  24              		.thumb
  25              		.thumb_func
  27              	lcd1602_transmit:
  28              	.LVL0:
  29              	.LFB135:
   1:Core/Src/transmit_and_recieve_control/transmit_and_recieve_control.c **** #include "transmit_and_recieve_control.h"
   2:Core/Src/transmit_and_recieve_control/transmit_and_recieve_control.c **** 
   3:Core/Src/transmit_and_recieve_control/transmit_and_recieve_control.c **** void lcd1602_send_string(char *str) {
   4:Core/Src/transmit_and_recieve_control/transmit_and_recieve_control.c ****     while(*str) {
   5:Core/Src/transmit_and_recieve_control/transmit_and_recieve_control.c ****         lcd1602_transmit_data((uint8_t)(*str));
   6:Core/Src/transmit_and_recieve_control/transmit_and_recieve_control.c ****         str++;
   7:Core/Src/transmit_and_recieve_control/transmit_and_recieve_control.c ****     }
   8:Core/Src/transmit_and_recieve_control/transmit_and_recieve_control.c **** }
   9:Core/Src/transmit_and_recieve_control/transmit_and_recieve_control.c **** 
  10:Core/Src/transmit_and_recieve_control/transmit_and_recieve_control.c **** void lcd1602_transmit(uint8_t data, uint8_t flags) {
  30              		.loc 1 10 52 view -0
  31              		.cfi_startproc
  32              		@ args = 0, pretend = 0, frame = 8
  33              		@ frame_needed = 0, uses_anonymous_args = 0
  34              		.loc 1 10 52 is_stmt 0 view .LVU1
  35 0000 00B5     		push	{lr}
  36              	.LCFI0:
  37              		.cfi_def_cfa_offset 4
  38              		.cfi_offset 14, -4
  39 0002 85B0     		sub	sp, sp, #20
  40              	.LCFI1:
  41              		.cfi_def_cfa_offset 24
  11:Core/Src/transmit_and_recieve_control/transmit_and_recieve_control.c **** 	uint8_t up = data & 0xF0;
  42              		.loc 1 11 2 is_stmt 1 view .LVU2
  43              		.loc 1 11 10 is_stmt 0 view .LVU3
  44 0004 00F0F003 		and	r3, r0, #240
  45              	.LVL1:
  12:Core/Src/transmit_and_recieve_control/transmit_and_recieve_control.c **** 	uint8_t lo = (data << 4) & 0xF0;
  46              		.loc 1 12 2 is_stmt 1 view .LVU4
ARM GAS  /tmp/ccuiy2cl.s 			page 2


  47              		.loc 1 12 10 is_stmt 0 view .LVU5
  48 0008 0001     		lsls	r0, r0, #4
  49              	.LVL2:
  50              		.loc 1 12 10 view .LVU6
  51 000a C0B2     		uxtb	r0, r0
  52              	.LVL3:
  13:Core/Src/transmit_and_recieve_control/transmit_and_recieve_control.c **** 	
  14:Core/Src/transmit_and_recieve_control/transmit_and_recieve_control.c **** 	uint8_t data_arr[4];                              
  53              		.loc 1 14 2 is_stmt 1 view .LVU7
  15:Core/Src/transmit_and_recieve_control/transmit_and_recieve_control.c **** 	data_arr[0] = up|flags|BACKLIGHT|PIN_EN; 
  54              		.loc 1 15 2 view .LVU8
  55              		.loc 1 15 14 is_stmt 0 view .LVU9
  56 000c 0B43     		orrs	r3, r3, r1
  57              	.LVL4:
  58              		.loc 1 15 14 view .LVU10
  59 000e 43F00C02 		orr	r2, r3, #12
  60 0012 8DF80C20 		strb	r2, [sp, #12]
  16:Core/Src/transmit_and_recieve_control/transmit_and_recieve_control.c **** 	data_arr[1] = up|flags|BACKLIGHT;         
  61              		.loc 1 16 2 is_stmt 1 view .LVU11
  62              		.loc 1 16 14 is_stmt 0 view .LVU12
  63 0016 43F00803 		orr	r3, r3, #8
  64 001a 8DF80D30 		strb	r3, [sp, #13]
  17:Core/Src/transmit_and_recieve_control/transmit_and_recieve_control.c **** 	data_arr[2] = lo|flags|BACKLIGHT|PIN_EN;
  65              		.loc 1 17 2 is_stmt 1 view .LVU13
  66              		.loc 1 17 14 is_stmt 0 view .LVU14
  67 001e 0143     		orrs	r1, r1, r0
  68              	.LVL5:
  69              		.loc 1 17 14 view .LVU15
  70 0020 41F00C03 		orr	r3, r1, #12
  71 0024 8DF80E30 		strb	r3, [sp, #14]
  18:Core/Src/transmit_and_recieve_control/transmit_and_recieve_control.c **** 	data_arr[3] = lo|flags|BACKLIGHT;
  72              		.loc 1 18 2 is_stmt 1 view .LVU16
  73              		.loc 1 18 14 is_stmt 0 view .LVU17
  74 0028 41F00801 		orr	r1, r1, #8
  75 002c 8DF80F10 		strb	r1, [sp, #15]
  19:Core/Src/transmit_and_recieve_control/transmit_and_recieve_control.c **** 	HAL_I2C_Master_Transmit(&hi2c1, lcd1604_addr, data_arr, sizeof(data_arr), HAL_MAX_DELAY);
  76              		.loc 1 19 2 is_stmt 1 view .LVU18
  77 0030 4FF0FF33 		mov	r3, #-1
  78 0034 0093     		str	r3, [sp]
  79 0036 0423     		movs	r3, #4
  80 0038 03AA     		add	r2, sp, #12
  81 003a 0449     		ldr	r1, .L3
  82 003c 0988     		ldrh	r1, [r1]
  83 003e 0448     		ldr	r0, .L3+4
  84              	.LVL6:
  85              		.loc 1 19 2 is_stmt 0 view .LVU19
  86 0040 FFF7FEFF 		bl	HAL_I2C_Master_Transmit
  87              	.LVL7:
  20:Core/Src/transmit_and_recieve_control/transmit_and_recieve_control.c **** }
  88              		.loc 1 20 1 view .LVU20
  89 0044 05B0     		add	sp, sp, #20
  90              	.LCFI2:
  91              		.cfi_def_cfa_offset 4
  92              		@ sp needed
  93 0046 5DF804FB 		ldr	pc, [sp], #4
  94              	.L4:
  95 004a 00BF     		.align	2
ARM GAS  /tmp/ccuiy2cl.s 			page 3


  96              	.L3:
  97 004c 00000000 		.word	lcd1604_addr
  98 0050 00000000 		.word	hi2c1
  99              		.cfi_endproc
 100              	.LFE135:
 102              		.section	.text.lcd1602_transmit_data,"ax",%progbits
 103              		.align	1
 104              		.global	lcd1602_transmit_data
 105              		.syntax unified
 106              		.thumb
 107              		.thumb_func
 109              	lcd1602_transmit_data:
 110              	.LVL8:
 111              	.LFB136:
  21:Core/Src/transmit_and_recieve_control/transmit_and_recieve_control.c **** 
  22:Core/Src/transmit_and_recieve_control/transmit_and_recieve_control.c **** void lcd1602_transmit_data(uint8_t data) {
 112              		.loc 1 22 42 is_stmt 1 view -0
 113              		.cfi_startproc
 114              		@ args = 0, pretend = 0, frame = 0
 115              		@ frame_needed = 0, uses_anonymous_args = 0
 116              		.loc 1 22 42 is_stmt 0 view .LVU22
 117 0000 08B5     		push	{r3, lr}
 118              	.LCFI3:
 119              		.cfi_def_cfa_offset 8
 120              		.cfi_offset 3, -8
 121              		.cfi_offset 14, -4
  23:Core/Src/transmit_and_recieve_control/transmit_and_recieve_control.c **** 	lcd1602_transmit(data, PIN_RS);
 122              		.loc 1 23 2 is_stmt 1 view .LVU23
 123 0002 0121     		movs	r1, #1
 124 0004 FFF7FEFF 		bl	lcd1602_transmit
 125              	.LVL9:
  24:Core/Src/transmit_and_recieve_control/transmit_and_recieve_control.c **** }
 126              		.loc 1 24 1 is_stmt 0 view .LVU24
 127 0008 08BD     		pop	{r3, pc}
 128              		.cfi_endproc
 129              	.LFE136:
 131              		.section	.text.lcd1602_send_string,"ax",%progbits
 132              		.align	1
 133              		.global	lcd1602_send_string
 134              		.syntax unified
 135              		.thumb
 136              		.thumb_func
 138              	lcd1602_send_string:
 139              	.LVL10:
 140              	.LFB134:
   3:Core/Src/transmit_and_recieve_control/transmit_and_recieve_control.c ****         lcd1602_transmit_data((uint8_t)(*str));
 141              		.loc 1 3 37 is_stmt 1 view -0
 142              		.cfi_startproc
 143              		@ args = 0, pretend = 0, frame = 0
 144              		@ frame_needed = 0, uses_anonymous_args = 0
   3:Core/Src/transmit_and_recieve_control/transmit_and_recieve_control.c ****         lcd1602_transmit_data((uint8_t)(*str));
 145              		.loc 1 3 37 is_stmt 0 view .LVU26
 146 0000 10B5     		push	{r4, lr}
 147              	.LCFI4:
 148              		.cfi_def_cfa_offset 8
 149              		.cfi_offset 4, -8
 150              		.cfi_offset 14, -4
ARM GAS  /tmp/ccuiy2cl.s 			page 4


 151 0002 0446     		mov	r4, r0
   4:Core/Src/transmit_and_recieve_control/transmit_and_recieve_control.c ****         lcd1602_transmit_data((uint8_t)(*str));
 152              		.loc 1 4 5 is_stmt 1 view .LVU27
   4:Core/Src/transmit_and_recieve_control/transmit_and_recieve_control.c ****         lcd1602_transmit_data((uint8_t)(*str));
 153              		.loc 1 4 10 is_stmt 0 view .LVU28
 154 0004 02E0     		b	.L8
 155              	.LVL11:
 156              	.L9:
   5:Core/Src/transmit_and_recieve_control/transmit_and_recieve_control.c ****         str++;
 157              		.loc 1 5 9 is_stmt 1 view .LVU29
 158 0006 FFF7FEFF 		bl	lcd1602_transmit_data
 159              	.LVL12:
   6:Core/Src/transmit_and_recieve_control/transmit_and_recieve_control.c ****     }
 160              		.loc 1 6 9 view .LVU30
   6:Core/Src/transmit_and_recieve_control/transmit_and_recieve_control.c ****     }
 161              		.loc 1 6 12 is_stmt 0 view .LVU31
 162 000a 0134     		adds	r4, r4, #1
 163              	.LVL13:
 164              	.L8:
   4:Core/Src/transmit_and_recieve_control/transmit_and_recieve_control.c ****         lcd1602_transmit_data((uint8_t)(*str));
 165              		.loc 1 4 11 is_stmt 1 view .LVU32
 166 000c 2078     		ldrb	r0, [r4]	@ zero_extendqisi2
 167 000e 0028     		cmp	r0, #0
 168 0010 F9D1     		bne	.L9
   8:Core/Src/transmit_and_recieve_control/transmit_and_recieve_control.c **** 
 169              		.loc 1 8 1 is_stmt 0 view .LVU33
 170 0012 10BD     		pop	{r4, pc}
   8:Core/Src/transmit_and_recieve_control/transmit_and_recieve_control.c **** 
 171              		.loc 1 8 1 view .LVU34
 172              		.cfi_endproc
 173              	.LFE134:
 175              		.section	.text.lcd1602_transmit_command,"ax",%progbits
 176              		.align	1
 177              		.global	lcd1602_transmit_command
 178              		.syntax unified
 179              		.thumb
 180              		.thumb_func
 182              	lcd1602_transmit_command:
 183              	.LVL14:
 184              	.LFB137:
  25:Core/Src/transmit_and_recieve_control/transmit_and_recieve_control.c **** 
  26:Core/Src/transmit_and_recieve_control/transmit_and_recieve_control.c **** void lcd1602_transmit_command(uint8_t cmd) {
 185              		.loc 1 26 44 is_stmt 1 view -0
 186              		.cfi_startproc
 187              		@ args = 0, pretend = 0, frame = 0
 188              		@ frame_needed = 0, uses_anonymous_args = 0
 189              		.loc 1 26 44 is_stmt 0 view .LVU36
 190 0000 08B5     		push	{r3, lr}
 191              	.LCFI5:
 192              		.cfi_def_cfa_offset 8
 193              		.cfi_offset 3, -8
 194              		.cfi_offset 14, -4
  27:Core/Src/transmit_and_recieve_control/transmit_and_recieve_control.c **** 	lcd1602_transmit(cmd, 0);
 195              		.loc 1 27 2 is_stmt 1 view .LVU37
 196 0002 0021     		movs	r1, #0
 197 0004 FFF7FEFF 		bl	lcd1602_transmit
 198              	.LVL15:
ARM GAS  /tmp/ccuiy2cl.s 			page 5


  28:Core/Src/transmit_and_recieve_control/transmit_and_recieve_control.c **** }
 199              		.loc 1 28 1 is_stmt 0 view .LVU38
 200 0008 08BD     		pop	{r3, pc}
 201              		.cfi_endproc
 202              	.LFE137:
 204              		.section	.rodata.bmp180_get_temperature.str1.4,"aMS",%progbits,1
 205              		.align	2
 206              	.LC0:
 207 0000 54686520 		.ascii	"The temperature is above the maximum! (38 celsius)\015"
 207      74656D70 
 207      65726174 
 207      75726520 
 207      69732061 
 208 0033 0A00     		.ascii	"\012\000"
 209 0035 000000   		.align	2
 210              	.LC1:
 211 0038 54686520 		.ascii	"The temperature is below the minimum! (-40 celsius)"
 211      74656D70 
 211      65726174 
 211      75726520 
 211      69732062 
 212 006b 0D0A00   		.ascii	"\015\012\000"
 213              		.section	.text.bmp180_get_temperature,"ax",%progbits
 214              		.align	1
 215              		.global	bmp180_get_temperature
 216              		.syntax unified
 217              		.thumb
 218              		.thumb_func
 220              	bmp180_get_temperature:
 221              	.LFB138:
  29:Core/Src/transmit_and_recieve_control/transmit_and_recieve_control.c **** 
  30:Core/Src/transmit_and_recieve_control/transmit_and_recieve_control.c **** int32_t bmp180_get_temperature(void) {
 222              		.loc 1 30 38 is_stmt 1 view -0
 223              		.cfi_startproc
 224              		@ args = 0, pretend = 0, frame = 0
 225              		@ frame_needed = 0, uses_anonymous_args = 0
 226 0000 D0B5     		push	{r4, r6, r7, lr}
 227              	.LCFI6:
 228              		.cfi_def_cfa_offset 16
 229              		.cfi_offset 4, -16
 230              		.cfi_offset 6, -12
 231              		.cfi_offset 7, -8
 232              		.cfi_offset 14, -4
 233 0002 84B0     		sub	sp, sp, #16
 234              	.LCFI7:
 235              		.cfi_def_cfa_offset 32
  31:Core/Src/transmit_and_recieve_control/transmit_and_recieve_control.c **** 	HAL_I2C_Mem_Read(&hi2c1, bmp180_addr, 0xF6, 1, temperature_buf, 2, HAL_MAX_DELAY); //i forgot what
 236              		.loc 1 31 2 view .LVU40
 237 0004 4FF0FF33 		mov	r3, #-1
 238 0008 0293     		str	r3, [sp, #8]
 239 000a 0223     		movs	r3, #2
 240 000c 0193     		str	r3, [sp, #4]
 241 000e 2C4C     		ldr	r4, .L24
 242 0010 0094     		str	r4, [sp]
 243 0012 0123     		movs	r3, #1
 244 0014 F622     		movs	r2, #246
 245 0016 2B49     		ldr	r1, .L24+4
ARM GAS  /tmp/ccuiy2cl.s 			page 6


 246 0018 0988     		ldrh	r1, [r1]
 247 001a 2B48     		ldr	r0, .L24+8
 248 001c FFF7FEFF 		bl	HAL_I2C_Mem_Read
 249              	.LVL16:
  32:Core/Src/transmit_and_recieve_control/transmit_and_recieve_control.c **** 	int32_t UT = (temperature_buf[0] << 8) + temperature_buf[1];
 250              		.loc 1 32 2 view .LVU41
 251              		.loc 1 32 31 is_stmt 0 view .LVU42
 252 0020 2278     		ldrb	r2, [r4]	@ zero_extendqisi2
 253              		.loc 1 32 58 view .LVU43
 254 0022 6378     		ldrb	r3, [r4, #1]	@ zero_extendqisi2
 255              		.loc 1 32 10 view .LVU44
 256 0024 03EB0223 		add	r3, r3, r2, lsl #8
 257              	.LVL17:
  33:Core/Src/transmit_and_recieve_control/transmit_and_recieve_control.c **** 	X1 = ((UT-AC6)*AC5) >> 15;
 258              		.loc 1 33 2 is_stmt 1 view .LVU45
 259              		.loc 1 33 11 is_stmt 0 view .LVU46
 260 0028 284A     		ldr	r2, .L24+12
 261 002a 1288     		ldrh	r2, [r2]
 262 002c 9B1A     		subs	r3, r3, r2
 263              	.LVL18:
 264              		.loc 1 33 16 view .LVU47
 265 002e 284A     		ldr	r2, .L24+16
 266 0030 1088     		ldrh	r0, [r2]
 267 0032 03FB00F0 		mul	r0, r3, r0
 268              		.loc 1 33 22 view .LVU48
 269 0036 C013     		asrs	r0, r0, #15
 270              		.loc 1 33 5 view .LVU49
 271 0038 264B     		ldr	r3, .L24+20
 272 003a 1860     		str	r0, [r3]
  34:Core/Src/transmit_and_recieve_control/transmit_and_recieve_control.c **** 	X2 = (MC << 11) / (X1 + MD);
 273              		.loc 1 34 2 is_stmt 1 view .LVU50
 274              		.loc 1 34 11 is_stmt 0 view .LVU51
 275 003c 264B     		ldr	r3, .L24+24
 276 003e B3F90030 		ldrsh	r3, [r3]
 277 0042 DB02     		lsls	r3, r3, #11
 278              		.loc 1 34 24 view .LVU52
 279 0044 254A     		ldr	r2, .L24+28
 280 0046 B2F90020 		ldrsh	r2, [r2]
 281 004a 0244     		add	r2, r2, r0
 282              		.loc 1 34 18 view .LVU53
 283 004c 93FBF2F3 		sdiv	r3, r3, r2
 284              		.loc 1 34 5 view .LVU54
 285 0050 234A     		ldr	r2, .L24+32
 286 0052 1360     		str	r3, [r2]
  35:Core/Src/transmit_and_recieve_control/transmit_and_recieve_control.c **** 	B5 = X1 + X2;
 287              		.loc 1 35 2 is_stmt 1 view .LVU55
 288              		.loc 1 35 10 is_stmt 0 view .LVU56
 289 0054 1844     		add	r0, r0, r3
 290              		.loc 1 35 5 view .LVU57
 291 0056 234B     		ldr	r3, .L24+36
 292 0058 1860     		str	r0, [r3]
  36:Core/Src/transmit_and_recieve_control/transmit_and_recieve_control.c **** 	int32_t T = ((B5 + 8) >> 4) / 10.0;
 293              		.loc 1 36 2 is_stmt 1 view .LVU58
 294              		.loc 1 36 19 is_stmt 0 view .LVU59
 295 005a 0830     		adds	r0, r0, #8
 296              		.loc 1 36 30 view .LVU60
 297 005c 0011     		asrs	r0, r0, #4
ARM GAS  /tmp/ccuiy2cl.s 			page 7


 298 005e FFF7FEFF 		bl	__aeabi_i2d
 299              	.LVL19:
 300              		.loc 1 36 30 view .LVU61
 301 0062 0022     		movs	r2, #0
 302 0064 204B     		ldr	r3, .L24+40
 303 0066 FFF7FEFF 		bl	__aeabi_ddiv
 304              	.LVL20:
 305              		.loc 1 36 10 view .LVU62
 306 006a FFF7FEFF 		bl	__aeabi_d2iz
 307              	.LVL21:
 308 006e 0446     		mov	r4, r0
 309              	.LVL22:
  37:Core/Src/transmit_and_recieve_control/transmit_and_recieve_control.c **** 
  38:Core/Src/transmit_and_recieve_control/transmit_and_recieve_control.c **** 	if (T / 10.0 > MAX_TEMPERATURE) {
 310              		.loc 1 38 2 is_stmt 1 view .LVU63
 311              		.loc 1 38 8 is_stmt 0 view .LVU64
 312 0070 FFF7FEFF 		bl	__aeabi_i2d
 313              	.LVL23:
 314              		.loc 1 38 8 view .LVU65
 315 0074 0022     		movs	r2, #0
 316 0076 1C4B     		ldr	r3, .L24+40
 317 0078 FFF7FEFF 		bl	__aeabi_ddiv
 318              	.LVL24:
 319 007c 0646     		mov	r6, r0
 320 007e 0F46     		mov	r7, r1
 321              		.loc 1 38 5 view .LVU66
 322 0080 0022     		movs	r2, #0
 323 0082 1A4B     		ldr	r3, .L24+44
 324 0084 FFF7FEFF 		bl	__aeabi_dcmpgt
 325              	.LVL25:
 326 0088 48B9     		cbnz	r0, .L22
  39:Core/Src/transmit_and_recieve_control/transmit_and_recieve_control.c **** 		HAL_UART_Transmit(&huart2, (const uint8_t*)"The temperature is above the maximum! (38 celsius)\r\
  40:Core/Src/transmit_and_recieve_control/transmit_and_recieve_control.c **** 			sizeof("The temperature is above the maximum! (38 celsius)\r\n")-1, HAL_MAX_DELAY);
  41:Core/Src/transmit_and_recieve_control/transmit_and_recieve_control.c **** 		return T;
  42:Core/Src/transmit_and_recieve_control/transmit_and_recieve_control.c **** 	} else if (T / 10.0 < MIN_TEMPERATURE) {
 327              		.loc 1 42 9 is_stmt 1 view .LVU67
 328              		.loc 1 42 12 is_stmt 0 view .LVU68
 329 008a 0022     		movs	r2, #0
 330 008c 184B     		ldr	r3, .L24+48
 331 008e 3046     		mov	r0, r6
 332 0090 3946     		mov	r1, r7
 333 0092 FFF7FEFF 		bl	__aeabi_dcmplt
 334              	.LVL26:
 335 0096 50B9     		cbnz	r0, .L23
 336              	.L13:
  43:Core/Src/transmit_and_recieve_control/transmit_and_recieve_control.c **** 		HAL_UART_Transmit(&huart2, (const uint8_t*)"The temperature is below the minimum! (-40 celsius)\r
  44:Core/Src/transmit_and_recieve_control/transmit_and_recieve_control.c **** 			sizeof("The temperature is below the minimum! (-40 celsius)\r\n")-1, HAL_MAX_DELAY);
  45:Core/Src/transmit_and_recieve_control/transmit_and_recieve_control.c **** 		return T;
  46:Core/Src/transmit_and_recieve_control/transmit_and_recieve_control.c **** 	}
  47:Core/Src/transmit_and_recieve_control/transmit_and_recieve_control.c **** 	
  48:Core/Src/transmit_and_recieve_control/transmit_and_recieve_control.c **** 	return T;
  49:Core/Src/transmit_and_recieve_control/transmit_and_recieve_control.c **** }
 337              		.loc 1 49 1 view .LVU69
 338 0098 2046     		mov	r0, r4
 339 009a 04B0     		add	sp, sp, #16
 340              	.LCFI8:
 341              		.cfi_remember_state
ARM GAS  /tmp/ccuiy2cl.s 			page 8


 342              		.cfi_def_cfa_offset 16
 343              		@ sp needed
 344 009c D0BD     		pop	{r4, r6, r7, pc}
 345              	.LVL27:
 346              	.L22:
 347              	.LCFI9:
 348              		.cfi_restore_state
  39:Core/Src/transmit_and_recieve_control/transmit_and_recieve_control.c **** 		HAL_UART_Transmit(&huart2, (const uint8_t*)"The temperature is above the maximum! (38 celsius)\r\
 349              		.loc 1 39 3 is_stmt 1 view .LVU70
 350 009e 4FF0FF33 		mov	r3, #-1
 351 00a2 3422     		movs	r2, #52
 352 00a4 1349     		ldr	r1, .L24+52
 353 00a6 1448     		ldr	r0, .L24+56
 354 00a8 FFF7FEFF 		bl	HAL_UART_Transmit
 355              	.LVL28:
  41:Core/Src/transmit_and_recieve_control/transmit_and_recieve_control.c **** 	} else if (T / 10.0 < MIN_TEMPERATURE) {
 356              		.loc 1 41 3 view .LVU71
  41:Core/Src/transmit_and_recieve_control/transmit_and_recieve_control.c **** 	} else if (T / 10.0 < MIN_TEMPERATURE) {
 357              		.loc 1 41 10 is_stmt 0 view .LVU72
 358 00ac F4E7     		b	.L13
 359              	.L23:
  43:Core/Src/transmit_and_recieve_control/transmit_and_recieve_control.c **** 		HAL_UART_Transmit(&huart2, (const uint8_t*)"The temperature is below the minimum! (-40 celsius)\r
 360              		.loc 1 43 3 is_stmt 1 view .LVU73
 361 00ae 4FF0FF33 		mov	r3, #-1
 362 00b2 3522     		movs	r2, #53
 363 00b4 1149     		ldr	r1, .L24+60
 364 00b6 1048     		ldr	r0, .L24+56
 365 00b8 FFF7FEFF 		bl	HAL_UART_Transmit
 366              	.LVL29:
  45:Core/Src/transmit_and_recieve_control/transmit_and_recieve_control.c **** 	}
 367              		.loc 1 45 3 view .LVU74
  45:Core/Src/transmit_and_recieve_control/transmit_and_recieve_control.c **** 	}
 368              		.loc 1 45 10 is_stmt 0 view .LVU75
 369 00bc ECE7     		b	.L13
 370              	.L25:
 371 00be 00BF     		.align	2
 372              	.L24:
 373 00c0 00000000 		.word	temperature_buf
 374 00c4 00000000 		.word	bmp180_addr
 375 00c8 00000000 		.word	hi2c1
 376 00cc 00000000 		.word	AC6
 377 00d0 00000000 		.word	AC5
 378 00d4 00000000 		.word	X1
 379 00d8 00000000 		.word	MC
 380 00dc 00000000 		.word	MD
 381 00e0 00000000 		.word	X2
 382 00e4 00000000 		.word	B5
 383 00e8 00002440 		.word	1076101120
 384 00ec 00004340 		.word	1078132736
 385 00f0 00003EC0 		.word	-1069678592
 386 00f4 00000000 		.word	.LC0
 387 00f8 00000000 		.word	huart2
 388 00fc 38000000 		.word	.LC1
 389              		.cfi_endproc
 390              	.LFE138:
 392              		.section	.rodata.bmp180_get_pressure.str1.4,"aMS",%progbits,1
 393              		.align	2
ARM GAS  /tmp/ccuiy2cl.s 			page 9


 394              	.LC2:
 395 0000 54686520 		.ascii	"The pressure is above the maximum! (770 millimeters"
 395      70726573 
 395      73757265 
 395      20697320 
 395      61626F76 
 396 0033 206F6620 		.ascii	" of mercury)\015\012\000"
 396      6D657263 
 396      75727929 
 396      0D0A00
 397 0042 0000     		.align	2
 398              	.LC3:
 399 0044 54686520 		.ascii	"The pressure is below the minimum! (730 millimeters"
 399      70726573 
 399      73757265 
 399      20697320 
 399      62656C6F 
 400 0077 206F6620 		.ascii	" of mercury)\015\012\000"
 400      6D657263 
 400      75727929 
 400      0D0A00
 401              		.section	.text.bmp180_get_pressure,"ax",%progbits
 402              		.align	1
 403              		.global	bmp180_get_pressure
 404              		.syntax unified
 405              		.thumb
 406              		.thumb_func
 408              	bmp180_get_pressure:
 409              	.LFB139:
  50:Core/Src/transmit_and_recieve_control/transmit_and_recieve_control.c **** 
  51:Core/Src/transmit_and_recieve_control/transmit_and_recieve_control.c **** int32_t bmp180_get_pressure(void) {
 410              		.loc 1 51 35 is_stmt 1 view -0
 411              		.cfi_startproc
 412              		@ args = 0, pretend = 0, frame = 0
 413              		@ frame_needed = 0, uses_anonymous_args = 0
 414 0000 70B5     		push	{r4, r5, r6, lr}
 415              	.LCFI10:
 416              		.cfi_def_cfa_offset 16
 417              		.cfi_offset 4, -16
 418              		.cfi_offset 5, -12
 419              		.cfi_offset 6, -8
 420              		.cfi_offset 14, -4
 421 0002 84B0     		sub	sp, sp, #16
 422              	.LCFI11:
 423              		.cfi_def_cfa_offset 32
  52:Core/Src/transmit_and_recieve_control/transmit_and_recieve_control.c **** 	HAL_I2C_Mem_Read(&hi2c1, bmp180_addr, 0xF6, 1, pressure_buf, 3, HAL_MAX_DELAY);
 424              		.loc 1 52 2 view .LVU77
 425 0004 4FF0FF33 		mov	r3, #-1
 426 0008 0293     		str	r3, [sp, #8]
 427 000a 0323     		movs	r3, #3
 428 000c 0193     		str	r3, [sp, #4]
 429 000e 494C     		ldr	r4, .L39
 430 0010 0094     		str	r4, [sp]
 431 0012 0123     		movs	r3, #1
 432 0014 F622     		movs	r2, #246
 433 0016 4849     		ldr	r1, .L39+4
 434 0018 0988     		ldrh	r1, [r1]
ARM GAS  /tmp/ccuiy2cl.s 			page 10


 435 001a 4848     		ldr	r0, .L39+8
 436 001c FFF7FEFF 		bl	HAL_I2C_Mem_Read
 437              	.LVL30:
  53:Core/Src/transmit_and_recieve_control/transmit_and_recieve_control.c **** 	long UP = (((long)pressure_buf[0] << 16) | ((long)pressure_buf[1] << 8) | (long)pressure_buf[2]) >
 438              		.loc 1 53 2 view .LVU78
 439              		.loc 1 53 32 is_stmt 0 view .LVU79
 440 0020 2378     		ldrb	r3, [r4]	@ zero_extendqisi2
 441              		.loc 1 53 64 view .LVU80
 442 0022 6178     		ldrb	r1, [r4, #1]	@ zero_extendqisi2
 443              		.loc 1 53 68 view .LVU81
 444 0024 0902     		lsls	r1, r1, #8
 445              		.loc 1 53 43 view .LVU82
 446 0026 41EA0341 		orr	r1, r1, r3, lsl #16
 447              	.LVL31:
  54:Core/Src/transmit_and_recieve_control/transmit_and_recieve_control.c **** 	
  55:Core/Src/transmit_and_recieve_control/transmit_and_recieve_control.c **** 	long B6 = B5 - 4000;
 448              		.loc 1 55 2 is_stmt 1 view .LVU83
 449              		.loc 1 55 15 is_stmt 0 view .LVU84
 450 002a 454B     		ldr	r3, .L39+12
 451 002c 1868     		ldr	r0, [r3]
 452              		.loc 1 55 7 view .LVU85
 453 002e A0F57A60 		sub	r0, r0, #4000
 454              	.LVL32:
  56:Core/Src/transmit_and_recieve_control/transmit_and_recieve_control.c **** 	X1 = (B2 * ((B6 * B6) >> 12)) >> 11;
 455              		.loc 1 56 2 is_stmt 1 view .LVU86
 456              		.loc 1 56 18 is_stmt 0 view .LVU87
 457 0032 00FB00F4 		mul	r4, r0, r0
 458              		.loc 1 56 24 view .LVU88
 459 0036 2413     		asrs	r4, r4, #12
 460              		.loc 1 56 11 view .LVU89
 461 0038 424B     		ldr	r3, .L39+16
 462 003a B3F90030 		ldrsh	r3, [r3]
 463 003e 04FB03F3 		mul	r3, r4, r3
 464              		.loc 1 56 32 view .LVU90
 465 0042 DB12     		asrs	r3, r3, #11
 466              		.loc 1 56 5 view .LVU91
 467 0044 404E     		ldr	r6, .L39+20
 468 0046 3360     		str	r3, [r6]
  57:Core/Src/transmit_and_recieve_control/transmit_and_recieve_control.c **** 	X2 = (AC2 * B6) >> 11;
 469              		.loc 1 57 2 is_stmt 1 view .LVU92
 470              		.loc 1 57 12 is_stmt 0 view .LVU93
 471 0048 404A     		ldr	r2, .L39+24
 472 004a B2F90020 		ldrsh	r2, [r2]
 473 004e 00FB02F2 		mul	r2, r0, r2
 474              		.loc 1 57 18 view .LVU94
 475 0052 D212     		asrs	r2, r2, #11
 476              		.loc 1 57 5 view .LVU95
 477 0054 3E4D     		ldr	r5, .L39+28
 478 0056 2A60     		str	r2, [r5]
  58:Core/Src/transmit_and_recieve_control/transmit_and_recieve_control.c **** 	long X3 = X1 + X2;
 479              		.loc 1 58 2 is_stmt 1 view .LVU96
 480              		.loc 1 58 7 is_stmt 0 view .LVU97
 481 0058 1344     		add	r3, r3, r2
 482              	.LVL33:
  59:Core/Src/transmit_and_recieve_control/transmit_and_recieve_control.c **** 	long B3 = ((((long)AC1 * 4 + X3) << OSS) + 2) >> 2;
 483              		.loc 1 59 2 is_stmt 1 view .LVU98
 484              		.loc 1 59 15 is_stmt 0 view .LVU99
ARM GAS  /tmp/ccuiy2cl.s 			page 11


 485 005a 3E4A     		ldr	r2, .L39+32
 486 005c B2F90020 		ldrsh	r2, [r2]
 487              		.loc 1 59 35 view .LVU100
 488 0060 03EB8203 		add	r3, r3, r2, lsl #2
 489              	.LVL34:
 490              		.loc 1 59 43 view .LVU101
 491 0064 0233     		adds	r3, r3, #2
 492              		.loc 1 59 7 view .LVU102
 493 0066 9B10     		asrs	r3, r3, #2
 494              	.LVL35:
  60:Core/Src/transmit_and_recieve_control/transmit_and_recieve_control.c **** 	X1 = (AC3 * B6) >> 13;
 495              		.loc 1 60 2 is_stmt 1 view .LVU103
 496              		.loc 1 60 12 is_stmt 0 view .LVU104
 497 0068 3B4A     		ldr	r2, .L39+36
 498 006a B2F90020 		ldrsh	r2, [r2]
 499 006e 00FB02F2 		mul	r2, r0, r2
 500              		.loc 1 60 18 view .LVU105
 501 0072 5213     		asrs	r2, r2, #13
 502              		.loc 1 60 5 view .LVU106
 503 0074 3260     		str	r2, [r6]
 504              	.LVL36:
  61:Core/Src/transmit_and_recieve_control/transmit_and_recieve_control.c **** 	X2 = (B1 * ((B6 * B6) >> 12)) >> 16;
 505              		.loc 1 61 2 is_stmt 1 view .LVU107
 506              		.loc 1 61 11 is_stmt 0 view .LVU108
 507 0076 3948     		ldr	r0, .L39+40
 508              	.LVL37:
 509              		.loc 1 61 11 view .LVU109
 510 0078 B0F90000 		ldrsh	r0, [r0]
 511 007c 04FB00F0 		mul	r0, r4, r0
 512              		.loc 1 61 32 view .LVU110
 513 0080 0014     		asrs	r0, r0, #16
 514              		.loc 1 61 5 view .LVU111
 515 0082 2860     		str	r0, [r5]
 516              	.LVL38:
  62:Core/Src/transmit_and_recieve_control/transmit_and_recieve_control.c **** 	X3 = ((X1 + X2) + 2) >> 2;
 517              		.loc 1 62 2 is_stmt 1 view .LVU112
 518              		.loc 1 62 12 is_stmt 0 view .LVU113
 519 0084 0244     		add	r2, r2, r0
 520              		.loc 1 62 18 view .LVU114
 521 0086 0232     		adds	r2, r2, #2
 522              		.loc 1 62 5 view .LVU115
 523 0088 9210     		asrs	r2, r2, #2
 524              	.LVL39:
  63:Core/Src/transmit_and_recieve_control/transmit_and_recieve_control.c **** 	unsigned long B4 = (AC4 * (unsigned long)(X3 + 32768)) >> 15;
 525              		.loc 1 63 2 is_stmt 1 view .LVU116
 526              		.loc 1 63 47 is_stmt 0 view .LVU117
 527 008a 02F50042 		add	r2, r2, #32768
 528              	.LVL40:
 529              		.loc 1 63 26 view .LVU118
 530 008e 3448     		ldr	r0, .L39+44
 531 0090 0088     		ldrh	r0, [r0]
 532 0092 00FB02F2 		mul	r2, r0, r2
 533              	.LVL41:
 534              		.loc 1 63 16 view .LVU119
 535 0096 D20B     		lsrs	r2, r2, #15
 536              	.LVL42:
  64:Core/Src/transmit_and_recieve_control/transmit_and_recieve_control.c **** 	unsigned long B7 = ((unsigned long)UP - B3) * (50000UL >> OSS);
ARM GAS  /tmp/ccuiy2cl.s 			page 12


 537              		.loc 1 64 2 is_stmt 1 view .LVU120
 538              		.loc 1 64 40 is_stmt 0 view .LVU121
 539 0098 C3EB1123 		rsb	r3, r3, r1, lsr #8
 540              	.LVL43:
 541              		.loc 1 64 16 view .LVU122
 542 009c 4CF25031 		movw	r1, #50000
 543              	.LVL44:
 544              		.loc 1 64 16 view .LVU123
 545 00a0 01FB03F3 		mul	r3, r1, r3
 546              	.LVL45:
  65:Core/Src/transmit_and_recieve_control/transmit_and_recieve_control.c **** 	long p;
 547              		.loc 1 65 2 is_stmt 1 view .LVU124
  66:Core/Src/transmit_and_recieve_control/transmit_and_recieve_control.c **** 	if (B7 < 0x80000000)
 548              		.loc 1 66 2 view .LVU125
 549              		.loc 1 66 5 is_stmt 0 view .LVU126
 550 00a4 002B     		cmp	r3, #0
 551 00a6 31DB     		blt	.L27
  67:Core/Src/transmit_and_recieve_control/transmit_and_recieve_control.c **** 			p = (B7 << 1) / B4;
 552              		.loc 1 67 4 is_stmt 1 view .LVU127
 553              		.loc 1 67 12 is_stmt 0 view .LVU128
 554 00a8 5B00     		lsls	r3, r3, #1
 555              	.LVL46:
 556              		.loc 1 67 18 view .LVU129
 557 00aa B3FBF2F3 		udiv	r3, r3, r2
 558              	.LVL47:
 559              	.L28:
  68:Core/Src/transmit_and_recieve_control/transmit_and_recieve_control.c **** 	else
  69:Core/Src/transmit_and_recieve_control/transmit_and_recieve_control.c **** 			p = (B7 / B4) << 1;
  70:Core/Src/transmit_and_recieve_control/transmit_and_recieve_control.c **** 
  71:Core/Src/transmit_and_recieve_control/transmit_and_recieve_control.c **** 	X1 = (p >> 8) * (p >> 8);
 560              		.loc 1 71 2 is_stmt 1 view .LVU130
 561              		.loc 1 71 10 is_stmt 0 view .LVU131
 562 00ae 1A12     		asrs	r2, r3, #8
 563              	.LVL48:
 564              		.loc 1 71 16 view .LVU132
 565 00b0 02FB02F2 		mul	r2, r2, r2
 566              		.loc 1 71 5 view .LVU133
 567 00b4 2449     		ldr	r1, .L39+20
 568              	.LVL49:
 569              		.loc 1 71 5 view .LVU134
 570 00b6 0A60     		str	r2, [r1]
 571              	.LVL50:
  72:Core/Src/transmit_and_recieve_control/transmit_and_recieve_control.c **** 	X1 = (X1 * 3038L) >> 16;
 572              		.loc 1 72 2 is_stmt 1 view .LVU135
 573              		.loc 1 72 11 is_stmt 0 view .LVU136
 574 00b8 40F6DE30 		movw	r0, #3038
 575              	.LVL51:
 576              		.loc 1 72 11 view .LVU137
 577 00bc 00FB02F2 		mul	r2, r0, r2
 578              		.loc 1 72 20 view .LVU138
 579 00c0 1214     		asrs	r2, r2, #16
 580              		.loc 1 72 5 view .LVU139
 581 00c2 0A60     		str	r2, [r1]
  73:Core/Src/transmit_and_recieve_control/transmit_and_recieve_control.c **** 	X2 = (-7357L * p) >> 16;
 582              		.loc 1 73 2 is_stmt 1 view .LVU140
 583              		.loc 1 73 15 is_stmt 0 view .LVU141
 584 00c4 2749     		ldr	r1, .L39+48
ARM GAS  /tmp/ccuiy2cl.s 			page 13


 585 00c6 03FB01F1 		mul	r1, r3, r1
 586              		.loc 1 73 20 view .LVU142
 587 00ca 0914     		asrs	r1, r1, #16
 588              		.loc 1 73 5 view .LVU143
 589 00cc 2048     		ldr	r0, .L39+28
 590 00ce 0160     		str	r1, [r0]
 591              	.LVL52:
  74:Core/Src/transmit_and_recieve_control/transmit_and_recieve_control.c **** 	p = p + ((X1 + X2 + 3791L) >> 4);
 592              		.loc 1 74 2 is_stmt 1 view .LVU144
 593              		.loc 1 74 15 is_stmt 0 view .LVU145
 594 00d0 0A44     		add	r2, r2, r1
 595              		.loc 1 74 20 view .LVU146
 596 00d2 02F6CF62 		addw	r2, r2, #3791
 597              		.loc 1 74 4 view .LVU147
 598 00d6 03EB2214 		add	r4, r3, r2, asr #4
 599              	.LVL53:
  75:Core/Src/transmit_and_recieve_control/transmit_and_recieve_control.c **** 	
  76:Core/Src/transmit_and_recieve_control/transmit_and_recieve_control.c **** 	if (p / 133.322f > MAX_PRESSURE) {
 600              		.loc 1 76 2 is_stmt 1 view .LVU148
 601              		.loc 1 76 8 is_stmt 0 view .LVU149
 602 00da 07EE904A 		vmov	s15, r4	@ int
 603 00de F8EEE76A 		vcvt.f32.s32	s13, s15
 604 00e2 9FED217A 		vldr.32	s14, .L39+52
 605 00e6 C6EE877A 		vdiv.f32	s15, s13, s14
 606              		.loc 1 76 5 view .LVU150
 607 00ea 9FED207A 		vldr.32	s14, .L39+56
 608 00ee F4EEC77A 		vcmpe.f32	s15, s14
 609 00f2 F1EE10FA 		vmrs	APSR_nzcv, FPSCR
 610 00f6 0DDC     		bgt	.L37
  77:Core/Src/transmit_and_recieve_control/transmit_and_recieve_control.c **** 		HAL_UART_Transmit(&huart2, (const uint8_t*)"The pressure is above the maximum! (770 millimeters o
  78:Core/Src/transmit_and_recieve_control/transmit_and_recieve_control.c **** 			sizeof("The pressure is above the maximum! (770 millimeters of mercury)\r\n")-1, HAL_MAX_DELAY);
  79:Core/Src/transmit_and_recieve_control/transmit_and_recieve_control.c **** 		return p;
  80:Core/Src/transmit_and_recieve_control/transmit_and_recieve_control.c **** 	} else if (p / 133.322f < MIN_PRESSURE) {
 611              		.loc 1 80 9 is_stmt 1 view .LVU151
 612              		.loc 1 80 12 is_stmt 0 view .LVU152
 613 00f8 9FED1D7A 		vldr.32	s14, .L39+60
 614 00fc F4EEC77A 		vcmpe.f32	s15, s14
 615 0100 F1EE10FA 		vmrs	APSR_nzcv, FPSCR
 616 0104 0ED4     		bmi	.L38
 617              	.LVL54:
 618              	.L26:
  81:Core/Src/transmit_and_recieve_control/transmit_and_recieve_control.c **** 		HAL_UART_Transmit(&huart2, (const uint8_t*)"The pressure is below the minimum! (730 millimeters o
  82:Core/Src/transmit_and_recieve_control/transmit_and_recieve_control.c **** 			sizeof("The pressure is below the minimum! (730 millimeters of mercury)\r\n")-1, HAL_MAX_DELAY);
  83:Core/Src/transmit_and_recieve_control/transmit_and_recieve_control.c **** 		return p;
  84:Core/Src/transmit_and_recieve_control/transmit_and_recieve_control.c **** 	}
  85:Core/Src/transmit_and_recieve_control/transmit_and_recieve_control.c **** 	
  86:Core/Src/transmit_and_recieve_control/transmit_and_recieve_control.c **** 	return p;
  87:Core/Src/transmit_and_recieve_control/transmit_and_recieve_control.c **** }...
 619              		.loc 1 87 1 view .LVU153
 620 0106 2046     		mov	r0, r4
 621 0108 04B0     		add	sp, sp, #16
 622              	.LCFI12:
 623              		.cfi_remember_state
 624              		.cfi_def_cfa_offset 16
 625              		@ sp needed
 626 010a 70BD     		pop	{r4, r5, r6, pc}
 627              	.LVL55:
ARM GAS  /tmp/ccuiy2cl.s 			page 14


 628              	.L27:
 629              	.LCFI13:
 630              		.cfi_restore_state
  69:Core/Src/transmit_and_recieve_control/transmit_and_recieve_control.c **** 			p = (B7 / B4) << 1;
 631              		.loc 1 69 4 is_stmt 1 view .LVU154
  69:Core/Src/transmit_and_recieve_control/transmit_and_recieve_control.c **** 			p = (B7 / B4) << 1;
 632              		.loc 1 69 12 is_stmt 0 view .LVU155
 633 010c B3FBF2F3 		udiv	r3, r3, r2
 634              	.LVL56:
  69:Core/Src/transmit_and_recieve_control/transmit_and_recieve_control.c **** 			p = (B7 / B4) << 1;
 635              		.loc 1 69 6 view .LVU156
 636 0110 5B00     		lsls	r3, r3, #1
 637 0112 CCE7     		b	.L28
 638              	.LVL57:
 639              	.L37:
  77:Core/Src/transmit_and_recieve_control/transmit_and_recieve_control.c **** 		HAL_UART_Transmit(&huart2, (const uint8_t*)"The pressure is above the maximum! (770 millimeters o
 640              		.loc 1 77 3 is_stmt 1 view .LVU157
 641 0114 4FF0FF33 		mov	r3, #-1
 642 0118 4122     		movs	r2, #65
 643 011a 1649     		ldr	r1, .L39+64
 644 011c 1648     		ldr	r0, .L39+68
 645 011e FFF7FEFF 		bl	HAL_UART_Transmit
 646              	.LVL58:
  79:Core/Src/transmit_and_recieve_control/transmit_and_recieve_control.c **** 		return p;
 647              		.loc 1 79 3 view .LVU158
  79:Core/Src/transmit_and_recieve_control/transmit_and_recieve_control.c **** 		return p;
 648              		.loc 1 79 10 is_stmt 0 view .LVU159
 649 0122 F0E7     		b	.L26
 650              	.LVL59:
 651              	.L38:
  81:Core/Src/transmit_and_recieve_control/transmit_and_recieve_control.c **** 		HAL_UART_Transmit(&huart2, (const uint8_t*)"The pressure is below the minimum! (730 millimeters o
 652              		.loc 1 81 3 is_stmt 1 view .LVU160
 653 0124 4FF0FF33 		mov	r3, #-1
 654 0128 4122     		movs	r2, #65
 655 012a 1449     		ldr	r1, .L39+72
 656 012c 1248     		ldr	r0, .L39+68
 657 012e FFF7FEFF 		bl	HAL_UART_Transmit
 658              	.LVL60:
  83:Core/Src/transmit_and_recieve_control/transmit_and_recieve_control.c **** 		return p;
 659              		.loc 1 83 3 view .LVU161
  83:Core/Src/transmit_and_recieve_control/transmit_and_recieve_control.c **** 		return p;
 660              		.loc 1 83 10 is_stmt 0 view .LVU162
 661 0132 E8E7     		b	.L26
 662              	.L40:
 663              		.align	2
 664              	.L39:
 665 0134 00000000 		.word	pressure_buf
 666 0138 00000000 		.word	bmp180_addr
 667 013c 00000000 		.word	hi2c1
 668 0140 00000000 		.word	B5
 669 0144 00000000 		.word	B2
 670 0148 00000000 		.word	X1
 671 014c 00000000 		.word	AC2
 672 0150 00000000 		.word	X2
 673 0154 00000000 		.word	AC1
 674 0158 00000000 		.word	AC3
 675 015c 00000000 		.word	B1
ARM GAS  /tmp/ccuiy2cl.s 			page 15


 676 0160 00000000 		.word	AC4
 677 0164 43E3FFFF 		.word	-7357
 678 0168 6F520543 		.word	1124422255
 679 016c 00804044 		.word	1145077760
 680 0170 00803644 		.word	1144422400
 681 0174 00000000 		.word	.LC2
 682 0178 00000000 		.word	huart2
 683 017c 44000000 		.word	.LC3
 684              		.cfi_endproc
 685              	.LFE139:
 687              		.text
 688              	.Letext0:
 689              		.file 2 "/home/mike/bin/arm-gnu-toolchain-14.3.rel1-x86_64-arm-none-eabi/arm-none-eabi/include/mac
 690              		.file 3 "/home/mike/bin/arm-gnu-toolchain-14.3.rel1-x86_64-arm-none-eabi/arm-none-eabi/include/sys
 691              		.file 4 "Drivers/CMSIS/Device/ST/STM32F4xx/Include/stm32f401xe.h"
 692              		.file 5 "Drivers/STM32F4xx_HAL_Driver/Inc/stm32f4xx_hal_def.h"
 693              		.file 6 "Drivers/STM32F4xx_HAL_Driver/Inc/stm32f4xx_hal_dma.h"
 694              		.file 7 "Drivers/STM32F4xx_HAL_Driver/Inc/stm32f4xx_hal_i2c.h"
 695              		.file 8 "Drivers/STM32F4xx_HAL_Driver/Inc/stm32f4xx_hal_uart.h"
 696              		.file 9 "Core/Src/transmit_and_recieve_control/transmit_and_recieve_control.h"
ARM GAS  /tmp/ccuiy2cl.s 			page 16

